Archive member included to satisfy reference by file (symbol)

c:/intelfpga_lite/18.1/nios2eds/bin/gnu/h-x86_64-mingw32/bin/../lib/gcc/nios2-elf/5.3.0/../../../../../H-x86_64-mingw32/nios2-elf/lib/mno-hw-mul\libc.a(lib_a-puts.o)
                              obj/default/hello_ucosii.o (puts)
c:/intelfpga_lite/18.1/nios2eds/bin/gnu/h-x86_64-mingw32/bin/../lib/gcc/nios2-elf/5.3.0/../../../../../H-x86_64-mingw32/nios2-elf/lib/mno-hw-mul\libc.a(lib_a-strlen.o)
                              c:/intelfpga_lite/18.1/nios2eds/bin/gnu/h-x86_64-mingw32/bin/../lib/gcc/nios2-elf/5.3.0/../../../../../H-x86_64-mingw32/nios2-elf/lib/mno-hw-mul\libc.a(lib_a-puts.o) (strlen)
c:/intelfpga_lite/18.1/nios2eds/bin/gnu/h-x86_64-mingw32/bin/../lib/gcc/nios2-elf/5.3.0/../../../../../H-x86_64-mingw32/nios2-elf/lib/mno-hw-mul\libc.a(lib_a-findfp.o)
                              c:/intelfpga_lite/18.1/nios2eds/bin/gnu/h-x86_64-mingw32/bin/../lib/gcc/nios2-elf/5.3.0/../../../../../H-x86_64-mingw32/nios2-elf/lib/mno-hw-mul\libc.a(lib_a-puts.o) (__sinit)
c:/intelfpga_lite/18.1/nios2eds/bin/gnu/h-x86_64-mingw32/bin/../lib/gcc/nios2-elf/5.3.0/../../../../../H-x86_64-mingw32/nios2-elf/lib/mno-hw-mul\libc.a(lib_a-fvwrite.o)
                              c:/intelfpga_lite/18.1/nios2eds/bin/gnu/h-x86_64-mingw32/bin/../lib/gcc/nios2-elf/5.3.0/../../../../../H-x86_64-mingw32/nios2-elf/lib/mno-hw-mul\libc.a(lib_a-puts.o) (__sfvwrite_r)
c:/intelfpga_lite/18.1/nios2eds/bin/gnu/h-x86_64-mingw32/bin/../lib/gcc/nios2-elf/5.3.0/../../../../../H-x86_64-mingw32/nios2-elf/lib/mno-hw-mul\libc.a(lib_a-fwalk.o)
                              c:/intelfpga_lite/18.1/nios2eds/bin/gnu/h-x86_64-mingw32/bin/../lib/gcc/nios2-elf/5.3.0/../../../../../H-x86_64-mingw32/nios2-elf/lib/mno-hw-mul\libc.a(lib_a-findfp.o) (_fwalk)
c:/intelfpga_lite/18.1/nios2eds/bin/gnu/h-x86_64-mingw32/bin/../lib/gcc/nios2-elf/5.3.0/../../../../../H-x86_64-mingw32/nios2-elf/lib/mno-hw-mul\libc.a(lib_a-impure.o)
                              c:/intelfpga_lite/18.1/nios2eds/bin/gnu/h-x86_64-mingw32/bin/../lib/gcc/nios2-elf/5.3.0/../../../../../H-x86_64-mingw32/nios2-elf/lib/mno-hw-mul\libc.a(lib_a-findfp.o) (_global_impure_ptr)
c:/intelfpga_lite/18.1/nios2eds/bin/gnu/h-x86_64-mingw32/bin/../lib/gcc/nios2-elf/5.3.0/../../../../../H-x86_64-mingw32/nios2-elf/lib/mno-hw-mul\libc.a(lib_a-mallocr.o)
                              c:/intelfpga_lite/18.1/nios2eds/bin/gnu/h-x86_64-mingw32/bin/../lib/gcc/nios2-elf/5.3.0/../../../../../H-x86_64-mingw32/nios2-elf/lib/mno-hw-mul\libc.a(lib_a-findfp.o) (_malloc_r)
c:/intelfpga_lite/18.1/nios2eds/bin/gnu/h-x86_64-mingw32/bin/../lib/gcc/nios2-elf/5.3.0/../../../../../H-x86_64-mingw32/nios2-elf/lib/mno-hw-mul\libc.a(lib_a-memchr.o)
                              c:/intelfpga_lite/18.1/nios2eds/bin/gnu/h-x86_64-mingw32/bin/../lib/gcc/nios2-elf/5.3.0/../../../../../H-x86_64-mingw32/nios2-elf/lib/mno-hw-mul\libc.a(lib_a-fvwrite.o) (memchr)
c:/intelfpga_lite/18.1/nios2eds/bin/gnu/h-x86_64-mingw32/bin/../lib/gcc/nios2-elf/5.3.0/../../../../../H-x86_64-mingw32/nios2-elf/lib/mno-hw-mul\libc.a(lib_a-memcpy.o)
                              c:/intelfpga_lite/18.1/nios2eds/bin/gnu/h-x86_64-mingw32/bin/../lib/gcc/nios2-elf/5.3.0/../../../../../H-x86_64-mingw32/nios2-elf/lib/mno-hw-mul\libc.a(lib_a-fvwrite.o) (memcpy)
c:/intelfpga_lite/18.1/nios2eds/bin/gnu/h-x86_64-mingw32/bin/../lib/gcc/nios2-elf/5.3.0/../../../../../H-x86_64-mingw32/nios2-elf/lib/mno-hw-mul\libc.a(lib_a-memmove.o)
                              c:/intelfpga_lite/18.1/nios2eds/bin/gnu/h-x86_64-mingw32/bin/../lib/gcc/nios2-elf/5.3.0/../../../../../H-x86_64-mingw32/nios2-elf/lib/mno-hw-mul\libc.a(lib_a-fvwrite.o) (memmove)
c:/intelfpga_lite/18.1/nios2eds/bin/gnu/h-x86_64-mingw32/bin/../lib/gcc/nios2-elf/5.3.0/../../../../../H-x86_64-mingw32/nios2-elf/lib/mno-hw-mul\libc.a(lib_a-memset.o)
                              c:/intelfpga_lite/18.1/nios2eds/bin/gnu/h-x86_64-mingw32/bin/../lib/gcc/nios2-elf/5.3.0/../../../../../H-x86_64-mingw32/nios2-elf/lib/mno-hw-mul\libc.a(lib_a-findfp.o) (memset)
c:/intelfpga_lite/18.1/nios2eds/bin/gnu/h-x86_64-mingw32/bin/../lib/gcc/nios2-elf/5.3.0/../../../../../H-x86_64-mingw32/nios2-elf/lib/mno-hw-mul\libc.a(lib_a-reallocr.o)
                              c:/intelfpga_lite/18.1/nios2eds/bin/gnu/h-x86_64-mingw32/bin/../lib/gcc/nios2-elf/5.3.0/../../../../../H-x86_64-mingw32/nios2-elf/lib/mno-hw-mul\libc.a(lib_a-fvwrite.o) (_realloc_r)
c:/intelfpga_lite/18.1/nios2eds/bin/gnu/h-x86_64-mingw32/bin/../lib/gcc/nios2-elf/5.3.0/../../../../../H-x86_64-mingw32/nios2-elf/lib/mno-hw-mul\libc.a(lib_a-sbrkr.o)
                              c:/intelfpga_lite/18.1/nios2eds/bin/gnu/h-x86_64-mingw32/bin/../lib/gcc/nios2-elf/5.3.0/../../../../../H-x86_64-mingw32/nios2-elf/lib/mno-hw-mul\libc.a(lib_a-mallocr.o) (_sbrk_r)
c:/intelfpga_lite/18.1/nios2eds/bin/gnu/h-x86_64-mingw32/bin/../lib/gcc/nios2-elf/5.3.0/../../../../../H-x86_64-mingw32/nios2-elf/lib/mno-hw-mul\libc.a(lib_a-stdio.o)
                              c:/intelfpga_lite/18.1/nios2eds/bin/gnu/h-x86_64-mingw32/bin/../lib/gcc/nios2-elf/5.3.0/../../../../../H-x86_64-mingw32/nios2-elf/lib/mno-hw-mul\libc.a(lib_a-findfp.o) (__sread)
c:/intelfpga_lite/18.1/nios2eds/bin/gnu/h-x86_64-mingw32/bin/../lib/gcc/nios2-elf/5.3.0/../../../../../H-x86_64-mingw32/nios2-elf/lib/mno-hw-mul\libc.a(lib_a-writer.o)
                              c:/intelfpga_lite/18.1/nios2eds/bin/gnu/h-x86_64-mingw32/bin/../lib/gcc/nios2-elf/5.3.0/../../../../../H-x86_64-mingw32/nios2-elf/lib/mno-hw-mul\libc.a(lib_a-stdio.o) (_write_r)
c:/intelfpga_lite/18.1/nios2eds/bin/gnu/h-x86_64-mingw32/bin/../lib/gcc/nios2-elf/5.3.0/../../../../../H-x86_64-mingw32/nios2-elf/lib/mno-hw-mul\libc.a(lib_a-wsetup.o)
                              c:/intelfpga_lite/18.1/nios2eds/bin/gnu/h-x86_64-mingw32/bin/../lib/gcc/nios2-elf/5.3.0/../../../../../H-x86_64-mingw32/nios2-elf/lib/mno-hw-mul\libc.a(lib_a-fvwrite.o) (__swsetup_r)
c:/intelfpga_lite/18.1/nios2eds/bin/gnu/h-x86_64-mingw32/bin/../lib/gcc/nios2-elf/5.3.0/../../../../../H-x86_64-mingw32/nios2-elf/lib/mno-hw-mul\libc.a(closer.o)
                              c:/intelfpga_lite/18.1/nios2eds/bin/gnu/h-x86_64-mingw32/bin/../lib/gcc/nios2-elf/5.3.0/../../../../../H-x86_64-mingw32/nios2-elf/lib/mno-hw-mul\libc.a(lib_a-stdio.o) (_close_r)
c:/intelfpga_lite/18.1/nios2eds/bin/gnu/h-x86_64-mingw32/bin/../lib/gcc/nios2-elf/5.3.0/../../../../../H-x86_64-mingw32/nios2-elf/lib/mno-hw-mul\libc.a(lib_a-fclose.o)
                              c:/intelfpga_lite/18.1/nios2eds/bin/gnu/h-x86_64-mingw32/bin/../lib/gcc/nios2-elf/5.3.0/../../../../../H-x86_64-mingw32/nios2-elf/lib/mno-hw-mul\libc.a(lib_a-findfp.o) (_fclose_r)
c:/intelfpga_lite/18.1/nios2eds/bin/gnu/h-x86_64-mingw32/bin/../lib/gcc/nios2-elf/5.3.0/../../../../../H-x86_64-mingw32/nios2-elf/lib/mno-hw-mul\libc.a(lib_a-fflush.o)
                              c:/intelfpga_lite/18.1/nios2eds/bin/gnu/h-x86_64-mingw32/bin/../lib/gcc/nios2-elf/5.3.0/../../../../../H-x86_64-mingw32/nios2-elf/lib/mno-hw-mul\libc.a(lib_a-fclose.o) (__sflush_r)
c:/intelfpga_lite/18.1/nios2eds/bin/gnu/h-x86_64-mingw32/bin/../lib/gcc/nios2-elf/5.3.0/../../../../../H-x86_64-mingw32/nios2-elf/lib/mno-hw-mul\libc.a(lib_a-freer.o)
                              c:/intelfpga_lite/18.1/nios2eds/bin/gnu/h-x86_64-mingw32/bin/../lib/gcc/nios2-elf/5.3.0/../../../../../H-x86_64-mingw32/nios2-elf/lib/mno-hw-mul\libc.a(lib_a-fvwrite.o) (_free_r)
c:/intelfpga_lite/18.1/nios2eds/bin/gnu/h-x86_64-mingw32/bin/../lib/gcc/nios2-elf/5.3.0/../../../../../H-x86_64-mingw32/nios2-elf/lib/mno-hw-mul\libc.a(lib_a-int_errno.o)
                              c:/intelfpga_lite/18.1/nios2eds/bin/gnu/h-x86_64-mingw32/bin/../lib/gcc/nios2-elf/5.3.0/../../../../../H-x86_64-mingw32/nios2-elf/lib/mno-hw-mul\libc.a(lib_a-sbrkr.o) (errno)
c:/intelfpga_lite/18.1/nios2eds/bin/gnu/h-x86_64-mingw32/bin/../lib/gcc/nios2-elf/5.3.0/../../../../../H-x86_64-mingw32/nios2-elf/lib/mno-hw-mul\libc.a(lib_a-lseekr.o)
                              c:/intelfpga_lite/18.1/nios2eds/bin/gnu/h-x86_64-mingw32/bin/../lib/gcc/nios2-elf/5.3.0/../../../../../H-x86_64-mingw32/nios2-elf/lib/mno-hw-mul\libc.a(lib_a-stdio.o) (_lseek_r)
c:/intelfpga_lite/18.1/nios2eds/bin/gnu/h-x86_64-mingw32/bin/../lib/gcc/nios2-elf/5.3.0/../../../../../H-x86_64-mingw32/nios2-elf/lib/mno-hw-mul\libc.a(lib_a-makebuf.o)
                              c:/intelfpga_lite/18.1/nios2eds/bin/gnu/h-x86_64-mingw32/bin/../lib/gcc/nios2-elf/5.3.0/../../../../../H-x86_64-mingw32/nios2-elf/lib/mno-hw-mul\libc.a(lib_a-wsetup.o) (__smakebuf_r)
c:/intelfpga_lite/18.1/nios2eds/bin/gnu/h-x86_64-mingw32/bin/../lib/gcc/nios2-elf/5.3.0/../../../../../H-x86_64-mingw32/nios2-elf/lib/mno-hw-mul\libc.a(lib_a-readr.o)
                              c:/intelfpga_lite/18.1/nios2eds/bin/gnu/h-x86_64-mingw32/bin/../lib/gcc/nios2-elf/5.3.0/../../../../../H-x86_64-mingw32/nios2-elf/lib/mno-hw-mul\libc.a(lib_a-stdio.o) (_read_r)
c:/intelfpga_lite/18.1/nios2eds/bin/gnu/h-x86_64-mingw32/bin/../lib/gcc/nios2-elf/5.3.0/../../../../../H-x86_64-mingw32/nios2-elf/lib/mno-hw-mul\libc.a(lib_a-fstatr.o)
                              c:/intelfpga_lite/18.1/nios2eds/bin/gnu/h-x86_64-mingw32/bin/../lib/gcc/nios2-elf/5.3.0/../../../../../H-x86_64-mingw32/nios2-elf/lib/mno-hw-mul\libc.a(lib_a-makebuf.o) (_fstat_r)
c:/intelfpga_lite/18.1/nios2eds/bin/gnu/h-x86_64-mingw32/bin/../lib/gcc/nios2-elf/5.3.0/../../../../../H-x86_64-mingw32/nios2-elf/lib/mno-hw-mul\libc.a(lib_a-isattyr.o)
                              c:/intelfpga_lite/18.1/nios2eds/bin/gnu/h-x86_64-mingw32/bin/../lib/gcc/nios2-elf/5.3.0/../../../../../H-x86_64-mingw32/nios2-elf/lib/mno-hw-mul\libc.a(lib_a-makebuf.o) (_isatty_r)
c:/intelfpga_lite/18.1/nios2eds/bin/gnu/h-x86_64-mingw32/bin/../lib/gcc/nios2-elf/5.3.0/mno-hw-mul\libgcc.a(lib2-divmod.o)
                              c:/intelfpga_lite/18.1/nios2eds/bin/gnu/h-x86_64-mingw32/bin/../lib/gcc/nios2-elf/5.3.0/../../../../../H-x86_64-mingw32/nios2-elf/lib/mno-hw-mul\libc.a(lib_a-fvwrite.o) (__divsi3)
c:/intelfpga_lite/18.1/nios2eds/bin/gnu/h-x86_64-mingw32/bin/../lib/gcc/nios2-elf/5.3.0/mno-hw-mul\libgcc.a(lib2-mul.o)
                              c:/intelfpga_lite/18.1/nios2eds/bin/gnu/h-x86_64-mingw32/bin/../lib/gcc/nios2-elf/5.3.0/../../../../../H-x86_64-mingw32/nios2-elf/lib/mno-hw-mul\libc.a(lib_a-findfp.o) (__mulsi3)
H:/Real_Time/TP_bsp/\libucosii_bsp.a(alt_close.o)
                              c:/intelfpga_lite/18.1/nios2eds/bin/gnu/h-x86_64-mingw32/bin/../lib/gcc/nios2-elf/5.3.0/../../../../../H-x86_64-mingw32/nios2-elf/lib/mno-hw-mul\libc.a(closer.o) (close)
H:/Real_Time/TP_bsp/\libucosii_bsp.a(alt_dev.o)
                              H:/Real_Time/TP_bsp/\libucosii_bsp.a(alt_close.o) (alt_fd_list)
H:/Real_Time/TP_bsp/\libucosii_bsp.a(alt_errno.o)
                              H:/Real_Time/TP_bsp/\libucosii_bsp.a(alt_close.o) (alt_errno)
H:/Real_Time/TP_bsp/\libucosii_bsp.a(alt_fstat.o)
                              c:/intelfpga_lite/18.1/nios2eds/bin/gnu/h-x86_64-mingw32/bin/../lib/gcc/nios2-elf/5.3.0/../../../../../H-x86_64-mingw32/nios2-elf/lib/mno-hw-mul\libc.a(lib_a-fstatr.o) (fstat)
H:/Real_Time/TP_bsp/\libucosii_bsp.a(alt_isatty.o)
                              c:/intelfpga_lite/18.1/nios2eds/bin/gnu/h-x86_64-mingw32/bin/../lib/gcc/nios2-elf/5.3.0/../../../../../H-x86_64-mingw32/nios2-elf/lib/mno-hw-mul\libc.a(lib_a-isattyr.o) (isatty)
H:/Real_Time/TP_bsp/\libucosii_bsp.a(alt_load.o)
                              H:/Real_Time/TP_bsp//obj/HAL/src/crt0.o (alt_load)
H:/Real_Time/TP_bsp/\libucosii_bsp.a(alt_lseek.o)
                              c:/intelfpga_lite/18.1/nios2eds/bin/gnu/h-x86_64-mingw32/bin/../lib/gcc/nios2-elf/5.3.0/../../../../../H-x86_64-mingw32/nios2-elf/lib/mno-hw-mul\libc.a(lib_a-lseekr.o) (lseek)
H:/Real_Time/TP_bsp/\libucosii_bsp.a(alt_main.o)
                              H:/Real_Time/TP_bsp//obj/HAL/src/crt0.o (alt_main)
H:/Real_Time/TP_bsp/\libucosii_bsp.a(alt_read.o)
                              c:/intelfpga_lite/18.1/nios2eds/bin/gnu/h-x86_64-mingw32/bin/../lib/gcc/nios2-elf/5.3.0/../../../../../H-x86_64-mingw32/nios2-elf/lib/mno-hw-mul\libc.a(lib_a-readr.o) (read)
H:/Real_Time/TP_bsp/\libucosii_bsp.a(alt_release_fd.o)
                              H:/Real_Time/TP_bsp/\libucosii_bsp.a(alt_close.o) (alt_release_fd)
H:/Real_Time/TP_bsp/\libucosii_bsp.a(alt_sbrk.o)
                              c:/intelfpga_lite/18.1/nios2eds/bin/gnu/h-x86_64-mingw32/bin/../lib/gcc/nios2-elf/5.3.0/../../../../../H-x86_64-mingw32/nios2-elf/lib/mno-hw-mul\libc.a(lib_a-sbrkr.o) (sbrk)
H:/Real_Time/TP_bsp/\libucosii_bsp.a(alt_write.o)
                              c:/intelfpga_lite/18.1/nios2eds/bin/gnu/h-x86_64-mingw32/bin/../lib/gcc/nios2-elf/5.3.0/../../../../../H-x86_64-mingw32/nios2-elf/lib/mno-hw-mul\libc.a(lib_a-writer.o) (write)
H:/Real_Time/TP_bsp/\libucosii_bsp.a(alt_env_lock.o)
                              H:/Real_Time/TP_bsp/\libucosii_bsp.a(alt_main.o) (alt_envsem)
H:/Real_Time/TP_bsp/\libucosii_bsp.a(alt_malloc_lock.o)
                              H:/Real_Time/TP_bsp/\libucosii_bsp.a(alt_main.o) (alt_heapsem)
H:/Real_Time/TP_bsp/\libucosii_bsp.a(os_core.o)
                              H:/Real_Time/TP_bsp/\libucosii_bsp.a(alt_malloc_lock.o) (OSRunning)
H:/Real_Time/TP_bsp/\libucosii_bsp.a(os_dbg.o)
                              H:/Real_Time/TP_bsp/\libucosii_bsp.a(os_core.o) (OSDebugInit)
H:/Real_Time/TP_bsp/\libucosii_bsp.a(os_flag.o)
                              H:/Real_Time/TP_bsp/\libucosii_bsp.a(os_core.o) (OS_FlagInit)
H:/Real_Time/TP_bsp/\libucosii_bsp.a(os_mem.o)
                              H:/Real_Time/TP_bsp/\libucosii_bsp.a(os_core.o) (OS_MemInit)
H:/Real_Time/TP_bsp/\libucosii_bsp.a(os_q.o)
                              H:/Real_Time/TP_bsp/\libucosii_bsp.a(os_core.o) (OS_QInit)
H:/Real_Time/TP_bsp/\libucosii_bsp.a(os_sem.o)
                              H:/Real_Time/TP_bsp/\libucosii_bsp.a(alt_main.o) (OSSemCreate)
H:/Real_Time/TP_bsp/\libucosii_bsp.a(os_task.o)
                              obj/default/hello_ucosii.o (OSTaskCreateExt)
H:/Real_Time/TP_bsp/\libucosii_bsp.a(os_time.o)
                              H:/Real_Time/TP_bsp/\libucosii_bsp.a(os_core.o) (OSTimeDly)
H:/Real_Time/TP_bsp/\libucosii_bsp.a(alt_sys_init.o)
                              H:/Real_Time/TP_bsp/\libucosii_bsp.a(alt_main.o) (alt_irq_init)
H:/Real_Time/TP_bsp/\libucosii_bsp.a(altera_avalon_jtag_uart_fd.o)
                              H:/Real_Time/TP_bsp/\libucosii_bsp.a(alt_sys_init.o) (altera_avalon_jtag_uart_read_fd)
H:/Real_Time/TP_bsp/\libucosii_bsp.a(altera_avalon_jtag_uart_init.o)
                              H:/Real_Time/TP_bsp/\libucosii_bsp.a(alt_sys_init.o) (altera_avalon_jtag_uart_init)
H:/Real_Time/TP_bsp/\libucosii_bsp.a(altera_avalon_jtag_uart_ioctl.o)
                              H:/Real_Time/TP_bsp/\libucosii_bsp.a(altera_avalon_jtag_uart_fd.o) (altera_avalon_jtag_uart_ioctl)
H:/Real_Time/TP_bsp/\libucosii_bsp.a(altera_avalon_jtag_uart_read.o)
                              H:/Real_Time/TP_bsp/\libucosii_bsp.a(altera_avalon_jtag_uart_fd.o) (altera_avalon_jtag_uart_read)
H:/Real_Time/TP_bsp/\libucosii_bsp.a(altera_avalon_jtag_uart_write.o)
                              H:/Real_Time/TP_bsp/\libucosii_bsp.a(altera_avalon_jtag_uart_fd.o) (altera_avalon_jtag_uart_write)
H:/Real_Time/TP_bsp/\libucosii_bsp.a(altera_avalon_timer_sc.o)
                              H:/Real_Time/TP_bsp/\libucosii_bsp.a(alt_sys_init.o) (alt_avalon_timer_sc_init)
H:/Real_Time/TP_bsp/\libucosii_bsp.a(altera_modular_adc.o)
                              H:/Real_Time/TP_bsp/\libucosii_bsp.a(alt_sys_init.o) (altera_modular_adc_init)
H:/Real_Time/TP_bsp/\libucosii_bsp.a(alt_alarm_start.o)
                              H:/Real_Time/TP_bsp/\libucosii_bsp.a(altera_avalon_jtag_uart_init.o) (alt_alarm_start)
H:/Real_Time/TP_bsp/\libucosii_bsp.a(alt_dcache_flush_all.o)
                              H:/Real_Time/TP_bsp/\libucosii_bsp.a(alt_load.o) (alt_dcache_flush_all)
H:/Real_Time/TP_bsp/\libucosii_bsp.a(alt_dev_llist_insert.o)
                              H:/Real_Time/TP_bsp/\libucosii_bsp.a(alt_sys_init.o) (alt_dev_llist_insert)
H:/Real_Time/TP_bsp/\libucosii_bsp.a(alt_do_ctors.o)
                              H:/Real_Time/TP_bsp/\libucosii_bsp.a(alt_main.o) (_do_ctors)
H:/Real_Time/TP_bsp/\libucosii_bsp.a(alt_do_dtors.o)
                              H:/Real_Time/TP_bsp/\libucosii_bsp.a(alt_main.o) (_do_dtors)
H:/Real_Time/TP_bsp/\libucosii_bsp.a(alt_find_dev.o)
                              H:/Real_Time/TP_bsp/\libucosii_bsp.a(altera_modular_adc.o) (alt_find_dev)
H:/Real_Time/TP_bsp/\libucosii_bsp.a(alt_icache_flush_all.o)
                              H:/Real_Time/TP_bsp/\libucosii_bsp.a(alt_load.o) (alt_icache_flush_all)
H:/Real_Time/TP_bsp/\libucosii_bsp.a(alt_iic.o)
                              H:/Real_Time/TP_bsp/\libucosii_bsp.a(altera_avalon_jtag_uart_init.o) (alt_ic_isr_register)
H:/Real_Time/TP_bsp/\libucosii_bsp.a(alt_iic_isr_register.o)
                              H:/Real_Time/TP_bsp/\libucosii_bsp.a(alt_iic.o) (alt_iic_isr_register)
H:/Real_Time/TP_bsp/\libucosii_bsp.a(alt_io_redirect.o)
                              H:/Real_Time/TP_bsp/\libucosii_bsp.a(alt_main.o) (alt_io_redirect)
H:/Real_Time/TP_bsp/\libucosii_bsp.a(alt_irq_entry.o)
                              H:/Real_Time/TP_bsp/\libucosii_bsp.a(alt_iic_isr_register.o) (alt_irq_entry)
H:/Real_Time/TP_bsp/\libucosii_bsp.a(alt_irq_handler.o)
                              H:/Real_Time/TP_bsp/\libucosii_bsp.a(alt_iic_isr_register.o) (alt_irq)
H:/Real_Time/TP_bsp/\libucosii_bsp.a(alt_irq_vars.o)
                              H:/Real_Time/TP_bsp/\libucosii_bsp.a(alt_iic.o) (alt_irq_active)
H:/Real_Time/TP_bsp/\libucosii_bsp.a(alt_open.o)
                              H:/Real_Time/TP_bsp/\libucosii_bsp.a(alt_io_redirect.o) (open)
H:/Real_Time/TP_bsp/\libucosii_bsp.a(alt_tick.o)
                              H:/Real_Time/TP_bsp/\libucosii_bsp.a(altera_avalon_jtag_uart_init.o) (_alt_tick_rate)
H:/Real_Time/TP_bsp/\libucosii_bsp.a(altera_nios2_gen2_irq.o)
                              H:/Real_Time/TP_bsp/\libucosii_bsp.a(alt_sys_init.o) (altera_nios2_gen2_irq_init)
H:/Real_Time/TP_bsp/\libucosii_bsp.a(os_cpu_a.o)
                              H:/Real_Time/TP_bsp/\libucosii_bsp.a(os_core.o) (OSIntCtxSw)
H:/Real_Time/TP_bsp/\libucosii_bsp.a(os_cpu_c.o)
                              H:/Real_Time/TP_bsp/\libucosii_bsp.a(os_task.o) (OSTaskStkInit)
H:/Real_Time/TP_bsp/\libucosii_bsp.a(alt_exception_entry.o)
                              H:/Real_Time/TP_bsp/\libucosii_bsp.a(alt_irq_entry.o) (alt_exception)
H:/Real_Time/TP_bsp/\libucosii_bsp.a(alt_find_file.o)
                              H:/Real_Time/TP_bsp/\libucosii_bsp.a(alt_open.o) (alt_find_file)
H:/Real_Time/TP_bsp/\libucosii_bsp.a(alt_get_fd.o)
                              H:/Real_Time/TP_bsp/\libucosii_bsp.a(alt_open.o) (alt_get_fd)
H:/Real_Time/TP_bsp/\libucosii_bsp.a(alt_instruction_exception_entry.o)
                              H:/Real_Time/TP_bsp/\libucosii_bsp.a(alt_exception_entry.o) (alt_instruction_exception_entry)
c:/intelfpga_lite/18.1/nios2eds/bin/gnu/h-x86_64-mingw32/bin/../lib/gcc/nios2-elf/5.3.0/../../../../../H-x86_64-mingw32/nios2-elf/lib/mno-hw-mul\libc.a(lib_a-atexit.o)
                              H:/Real_Time/TP_bsp/\libucosii_bsp.a(alt_main.o) (atexit)
c:/intelfpga_lite/18.1/nios2eds/bin/gnu/h-x86_64-mingw32/bin/../lib/gcc/nios2-elf/5.3.0/../../../../../H-x86_64-mingw32/nios2-elf/lib/mno-hw-mul\libc.a(lib_a-exit.o)
                              H:/Real_Time/TP_bsp/\libucosii_bsp.a(alt_main.o) (exit)
c:/intelfpga_lite/18.1/nios2eds/bin/gnu/h-x86_64-mingw32/bin/../lib/gcc/nios2-elf/5.3.0/../../../../../H-x86_64-mingw32/nios2-elf/lib/mno-hw-mul\libc.a(lib_a-memcmp.o)
                              H:/Real_Time/TP_bsp/\libucosii_bsp.a(alt_find_dev.o) (memcmp)
c:/intelfpga_lite/18.1/nios2eds/bin/gnu/h-x86_64-mingw32/bin/../lib/gcc/nios2-elf/5.3.0/../../../../../H-x86_64-mingw32/nios2-elf/lib/mno-hw-mul\libc.a(lib_a-__atexit.o)
                              c:/intelfpga_lite/18.1/nios2eds/bin/gnu/h-x86_64-mingw32/bin/../lib/gcc/nios2-elf/5.3.0/../../../../../H-x86_64-mingw32/nios2-elf/lib/mno-hw-mul\libc.a(lib_a-atexit.o) (__register_exitproc)
c:/intelfpga_lite/18.1/nios2eds/bin/gnu/h-x86_64-mingw32/bin/../lib/gcc/nios2-elf/5.3.0/../../../../../H-x86_64-mingw32/nios2-elf/lib/mno-hw-mul\libc.a(lib_a-__call_atexit.o)
                              c:/intelfpga_lite/18.1/nios2eds/bin/gnu/h-x86_64-mingw32/bin/../lib/gcc/nios2-elf/5.3.0/../../../../../H-x86_64-mingw32/nios2-elf/lib/mno-hw-mul\libc.a(lib_a-exit.o) (__call_exitprocs)
H:/Real_Time/TP_bsp/\libucosii_bsp.a(alt_exit.o)
                              c:/intelfpga_lite/18.1/nios2eds/bin/gnu/h-x86_64-mingw32/bin/../lib/gcc/nios2-elf/5.3.0/../../../../../H-x86_64-mingw32/nios2-elf/lib/mno-hw-mul\libc.a(lib_a-exit.o) (_exit)

Allocating common symbols
Common symbol       size              file

alt_irq             0x100             H:/Real_Time/TP_bsp/\libucosii_bsp.a(alt_irq_handler.o)
task1_stk           0x2000            obj/default/hello_ucosii.o
OSLockNesting       0x1               H:/Real_Time/TP_bsp/\libucosii_bsp.a(os_core.o)
OSRunning           0x1               H:/Real_Time/TP_bsp/\libucosii_bsp.a(os_core.o)
OSIdleCtr           0x4               H:/Real_Time/TP_bsp/\libucosii_bsp.a(os_core.o)
OSPrioHighRdy       0x1               H:/Real_Time/TP_bsp/\libucosii_bsp.a(os_core.o)
errno               0x4               c:/intelfpga_lite/18.1/nios2eds/bin/gnu/h-x86_64-mingw32/bin/../lib/gcc/nios2-elf/5.3.0/../../../../../H-x86_64-mingw32/nios2-elf/lib/mno-hw-mul\libc.a(lib_a-int_errno.o)
alt_heapsem         0x4               H:/Real_Time/TP_bsp/\libucosii_bsp.a(alt_malloc_lock.o)
OSFlagTbl           0x370             H:/Real_Time/TP_bsp/\libucosii_bsp.a(os_core.o)
OSPrioCur           0x1               H:/Real_Time/TP_bsp/\libucosii_bsp.a(os_core.o)
OSTCBList           0x4               H:/Real_Time/TP_bsp/\libucosii_bsp.a(os_core.o)
alt_fd_list_lock    0x4               H:/Real_Time/TP_bsp/\libucosii_bsp.a(alt_dev.o)
OSMemTbl            0xc30             H:/Real_Time/TP_bsp/\libucosii_bsp.a(os_core.o)
OSTickStepState     0x1               H:/Real_Time/TP_bsp/\libucosii_bsp.a(os_core.o)
OSTaskStatStk       0x800             H:/Real_Time/TP_bsp/\libucosii_bsp.a(os_core.o)
OSCtxSwCtr          0x4               H:/Real_Time/TP_bsp/\libucosii_bsp.a(os_core.o)
OSIdleCtrMax        0x4               H:/Real_Time/TP_bsp/\libucosii_bsp.a(os_core.o)
OSTCBFreeList       0x4               H:/Real_Time/TP_bsp/\libucosii_bsp.a(os_core.o)
OSCPUUsage          0x1               H:/Real_Time/TP_bsp/\libucosii_bsp.a(os_core.o)
OSTaskCtr           0x1               H:/Real_Time/TP_bsp/\libucosii_bsp.a(os_core.o)
OSMemFreeList       0x4               H:/Real_Time/TP_bsp/\libucosii_bsp.a(os_core.o)
OSQTbl              0x1e0             H:/Real_Time/TP_bsp/\libucosii_bsp.a(os_core.o)
OSTCBHighRdy        0x4               H:/Real_Time/TP_bsp/\libucosii_bsp.a(os_core.o)
OSQFreeList         0x4               H:/Real_Time/TP_bsp/\libucosii_bsp.a(os_core.o)
OSRdyGrp            0x1               H:/Real_Time/TP_bsp/\libucosii_bsp.a(os_core.o)
task2_stk           0x2000            obj/default/hello_ucosii.o
OSRdyTbl            0x3               H:/Real_Time/TP_bsp/\libucosii_bsp.a(os_core.o)
OSEventFreeList     0x4               H:/Real_Time/TP_bsp/\libucosii_bsp.a(os_core.o)
OSIntNesting        0x1               H:/Real_Time/TP_bsp/\libucosii_bsp.a(os_core.o)
OSTCBCur            0x4               H:/Real_Time/TP_bsp/\libucosii_bsp.a(os_core.o)
OSTime              0x4               H:/Real_Time/TP_bsp/\libucosii_bsp.a(os_core.o)
OSTaskIdleStk       0x800             H:/Real_Time/TP_bsp/\libucosii_bsp.a(os_core.o)
OSEventTbl          0xb40             H:/Real_Time/TP_bsp/\libucosii_bsp.a(os_core.o)
OSTCBTbl            0x510             H:/Real_Time/TP_bsp/\libucosii_bsp.a(os_core.o)
OSFlagFreeList      0x4               H:/Real_Time/TP_bsp/\libucosii_bsp.a(os_core.o)
OSStatRdy           0x1               H:/Real_Time/TP_bsp/\libucosii_bsp.a(os_core.o)
OSTCBPrioTbl        0x54              H:/Real_Time/TP_bsp/\libucosii_bsp.a(os_core.o)
alt_envsem          0x4               H:/Real_Time/TP_bsp/\libucosii_bsp.a(alt_env_lock.o)
OSIdleCtrRun        0x4               H:/Real_Time/TP_bsp/\libucosii_bsp.a(os_core.o)

Memory Configuration

Name             Origin             Length             Attributes
reset            0x0000000004000000 0x0000000000000020
sdram            0x0000000004000020 0x0000000003ffffe0
onchip_memory2_0 0x0000000008008000 0x0000000000008000
*default*        0x0000000000000000 0xffffffffffffffff

Linker script and memory map

LOAD H:/Real_Time/TP_bsp//obj/HAL/src/crt0.o
LOAD obj/default/hello_ucosii.o
LOAD c:/intelfpga_lite/18.1/nios2eds/bin/gnu/h-x86_64-mingw32/bin/../lib/gcc/nios2-elf/5.3.0/../../../../../H-x86_64-mingw32/nios2-elf/lib/mno-hw-mul\libstdc++.a
LOAD c:/intelfpga_lite/18.1/nios2eds/bin/gnu/h-x86_64-mingw32/bin/../lib/gcc/nios2-elf/5.3.0/../../../../../H-x86_64-mingw32/nios2-elf/lib/mno-hw-mul\libm.a
LOAD c:/intelfpga_lite/18.1/nios2eds/bin/gnu/h-x86_64-mingw32/bin/../lib/gcc/nios2-elf/5.3.0/mno-hw-mul\libgcc.a
START GROUP
LOAD c:/intelfpga_lite/18.1/nios2eds/bin/gnu/h-x86_64-mingw32/bin/../lib/gcc/nios2-elf/5.3.0/../../../../../H-x86_64-mingw32/nios2-elf/lib/mno-hw-mul\libc.a
LOAD c:/intelfpga_lite/18.1/nios2eds/bin/gnu/h-x86_64-mingw32/bin/../lib/gcc/nios2-elf/5.3.0/mno-hw-mul\libgcc.a
LOAD H:/Real_Time/TP_bsp/\libucosii_bsp.a
LOAD c:/intelfpga_lite/18.1/nios2eds/bin/gnu/h-x86_64-mingw32/bin/../lib/gcc/nios2-elf/5.3.0/../../../../../H-x86_64-mingw32/nios2-elf/lib/mno-hw-mul\libm.a
END GROUP
LOAD c:/intelfpga_lite/18.1/nios2eds/bin/gnu/h-x86_64-mingw32/bin/../lib/gcc/nios2-elf/5.3.0/mno-hw-mul\libgcc.a
                0x0000000004000000                __alt_mem_sdram = 0x4000000
                0x0000000008008000                __alt_mem_onchip_memory2_0 = 0x8008000

.entry          0x0000000004000000       0x20
 *(.entry)
 .entry         0x0000000004000000       0x20 H:/Real_Time/TP_bsp//obj/HAL/src/crt0.o
                0x0000000004000000                __reset

.exceptions     0x0000000004000020      0x210
                0x0000000004000020                PROVIDE (__ram_exceptions_start, ABSOLUTE (.))
                0x0000000004000020                . = ALIGN (0x20)
 *(.irq)
 *(.exceptions.entry.label)
 .exceptions.entry.label
                0x0000000004000020        0x0 H:/Real_Time/TP_bsp/\libucosii_bsp.a(alt_irq_entry.o)
                0x0000000004000020                alt_irq_entry
 .exceptions.entry.label
                0x0000000004000020        0x0 H:/Real_Time/TP_bsp/\libucosii_bsp.a(alt_exception_entry.o)
                0x0000000004000020                alt_exception
 *(.exceptions.entry.user)
 *(.exceptions.entry.ecc_fatal)
 *(.exceptions.entry)
 .exceptions.entry
                0x0000000004000020       0x54 H:/Real_Time/TP_bsp/\libucosii_bsp.a(alt_exception_entry.o)
 *(.exceptions.irqtest.user)
 *(.exceptions.irqtest)
 .exceptions.irqtest
                0x0000000004000074       0x10 H:/Real_Time/TP_bsp/\libucosii_bsp.a(alt_irq_entry.o)
 *(.exceptions.irqhandler.user)
 *(.exceptions.irqhandler)
 .exceptions.irqhandler
                0x0000000004000084        0x4 H:/Real_Time/TP_bsp/\libucosii_bsp.a(alt_irq_entry.o)
 *(.exceptions.irqreturn.user)
 *(.exceptions.irqreturn)
 .exceptions.irqreturn
                0x0000000004000088        0x4 H:/Real_Time/TP_bsp/\libucosii_bsp.a(alt_irq_entry.o)
 *(.exceptions.notirq.label)
 .exceptions.notirq.label
                0x000000000400008c        0x0 H:/Real_Time/TP_bsp/\libucosii_bsp.a(alt_irq_entry.o)
 *(.exceptions.notirq.user)
 *(.exceptions.notirq)
 .exceptions.notirq
                0x000000000400008c        0x8 H:/Real_Time/TP_bsp/\libucosii_bsp.a(alt_exception_entry.o)
 *(.exceptions.soft.user)
 *(.exceptions.soft)
 *(.exceptions.unknown.user)
 *(.exceptions.unknown)
 .exceptions.unknown
                0x0000000004000094       0x14 H:/Real_Time/TP_bsp/\libucosii_bsp.a(alt_exception_entry.o)
 *(.exceptions.exit.label)
 .exceptions.exit.label
                0x00000000040000a8        0x0 H:/Real_Time/TP_bsp/\libucosii_bsp.a(alt_irq_entry.o)
 .exceptions.exit.label
                0x00000000040000a8        0x0 H:/Real_Time/TP_bsp/\libucosii_bsp.a(alt_exception_entry.o)
 *(.exceptions.exit.user)
 *(.exceptions.exit)
 .exceptions.exit
                0x00000000040000a8       0x54 H:/Real_Time/TP_bsp/\libucosii_bsp.a(alt_exception_entry.o)
 *(.exceptions)
 .exceptions    0x00000000040000fc       0xd4 H:/Real_Time/TP_bsp/\libucosii_bsp.a(alt_irq_handler.o)
                0x00000000040000fc                alt_irq_handler
 .exceptions    0x00000000040001d0       0x60 H:/Real_Time/TP_bsp/\libucosii_bsp.a(alt_instruction_exception_entry.o)
                0x00000000040001d0                alt_instruction_exception_entry
                0x0000000004000230                PROVIDE (__ram_exceptions_end, ABSOLUTE (.))
                0x0000000004000020                PROVIDE (__flash_exceptions_start, LOADADDR (.exceptions))

.text           0x0000000004000230     0xde54
                [!provide]                        PROVIDE (stext, ABSOLUTE (.))
 *(.interp)
 *(.hash)
 *(.dynsym)
 *(.dynstr)
 *(.gnu.version)
 *(.gnu.version_d)
 *(.gnu.version_r)
 *(.rel.init)
 *(.rela.init)
 *(.rel.text .rel.text.* .rel.gnu.linkonce.t.*)
 *(.rela.text .rela.text.* .rela.gnu.linkonce.t.*)
 *(.rel.fini)
 *(.rela.fini)
 *(.rel.rodata .rel.rodata.* .rel.gnu.linkonce.r.*)
 *(.rela.rodata .rela.rodata.* .rela.gnu.linkonce.r.*)
 *(.rel.data .rel.data.* .rel.gnu.linkonce.d.*)
 *(.rela.data .rela.data.* .rela.gnu.linkonce.d.*)
 *(.rel.tdata .rel.tdata.* .rel.gnu.linkonce.td.*)
 *(.rela.tdata .rela.tdata.* .rela.gnu.linkonce.td.*)
 *(.rel.tbss .rel.tbss.* .rel.gnu.linkonce.tb.*)
 *(.rela.tbss .rela.tbss.* .rela.gnu.linkonce.tb.*)
 *(.rel.ctors)
 *(.rela.ctors)
 *(.rel.dtors)
 *(.rela.dtors)
 *(.rel.got)
 *(.rela.got)
 *(.rel.sdata .rel.sdata.* .rel.gnu.linkonce.s.*)
 *(.rela.sdata .rela.sdata.* .rela.gnu.linkonce.s.*)
 *(.rel.sbss .rel.sbss.* .rel.gnu.linkonce.sb.*)
 *(.rela.sbss .rela.sbss.* .rela.gnu.linkonce.sb.*)
 *(.rel.sdata2 .rel.sdata2.* .rel.gnu.linkonce.s2.*)
 *(.rela.sdata2 .rela.sdata2.* .rela.gnu.linkonce.s2.*)
 *(.rel.sbss2 .rel.sbss2.* .rel.gnu.linkonce.sb2.*)
 *(.rela.sbss2 .rela.sbss2.* .rela.gnu.linkonce.sb2.*)
 *(.rel.bss .rel.bss.* .rel.gnu.linkonce.b.*)
 *(.rela.bss .rela.bss.* .rela.gnu.linkonce.b.*)
 *(.rel.plt)
 *(.rela.plt)
 *(.rel.dyn)
 *(.init)
 *(.plt)
 *(.text .stub .text.* .gnu.linkonce.t.*)
 .text          0x0000000004000230       0x3c H:/Real_Time/TP_bsp//obj/HAL/src/crt0.o
                0x0000000004000230                _start
 .text          0x000000000400026c      0x1b8 obj/default/hello_ucosii.o
                0x000000000400026c                task1
                0x00000000040002a4                task2
                0x00000000040002dc                main
 .text          0x0000000004000424        0x0 c:/intelfpga_lite/18.1/nios2eds/bin/gnu/h-x86_64-mingw32/bin/../lib/gcc/nios2-elf/5.3.0/../../../../../H-x86_64-mingw32/nios2-elf/lib/mno-hw-mul\libc.a(lib_a-puts.o)
 .text._puts_r  0x0000000004000424       0xc0 c:/intelfpga_lite/18.1/nios2eds/bin/gnu/h-x86_64-mingw32/bin/../lib/gcc/nios2-elf/5.3.0/../../../../../H-x86_64-mingw32/nios2-elf/lib/mno-hw-mul\libc.a(lib_a-puts.o)
                0x0000000004000424                _puts_r
 .text.puts     0x00000000040004e4       0x14 c:/intelfpga_lite/18.1/nios2eds/bin/gnu/h-x86_64-mingw32/bin/../lib/gcc/nios2-elf/5.3.0/../../../../../H-x86_64-mingw32/nios2-elf/lib/mno-hw-mul\libc.a(lib_a-puts.o)
                0x00000000040004e4                puts
 .text          0x00000000040004f8        0x0 c:/intelfpga_lite/18.1/nios2eds/bin/gnu/h-x86_64-mingw32/bin/../lib/gcc/nios2-elf/5.3.0/../../../../../H-x86_64-mingw32/nios2-elf/lib/mno-hw-mul\libc.a(lib_a-strlen.o)
 .text.strlen   0x00000000040004f8       0x98 c:/intelfpga_lite/18.1/nios2eds/bin/gnu/h-x86_64-mingw32/bin/../lib/gcc/nios2-elf/5.3.0/../../../../../H-x86_64-mingw32/nios2-elf/lib/mno-hw-mul\libc.a(lib_a-strlen.o)
                0x00000000040004f8                strlen
 .text          0x0000000004000590        0x0 c:/intelfpga_lite/18.1/nios2eds/bin/gnu/h-x86_64-mingw32/bin/../lib/gcc/nios2-elf/5.3.0/../../../../../H-x86_64-mingw32/nios2-elf/lib/mno-hw-mul\libc.a(lib_a-findfp.o)
 .text.__fp_unlock
                0x0000000004000590        0x8 c:/intelfpga_lite/18.1/nios2eds/bin/gnu/h-x86_64-mingw32/bin/../lib/gcc/nios2-elf/5.3.0/../../../../../H-x86_64-mingw32/nios2-elf/lib/mno-hw-mul\libc.a(lib_a-findfp.o)
 .text._cleanup_r
                0x0000000004000598        0xc c:/intelfpga_lite/18.1/nios2eds/bin/gnu/h-x86_64-mingw32/bin/../lib/gcc/nios2-elf/5.3.0/../../../../../H-x86_64-mingw32/nios2-elf/lib/mno-hw-mul\libc.a(lib_a-findfp.o)
                0x0000000004000598                _cleanup_r
 .text.__sinit.part.1
                0x00000000040005a4      0x19c c:/intelfpga_lite/18.1/nios2eds/bin/gnu/h-x86_64-mingw32/bin/../lib/gcc/nios2-elf/5.3.0/../../../../../H-x86_64-mingw32/nios2-elf/lib/mno-hw-mul\libc.a(lib_a-findfp.o)
 .text.__fp_lock
                0x0000000004000740        0x8 c:/intelfpga_lite/18.1/nios2eds/bin/gnu/h-x86_64-mingw32/bin/../lib/gcc/nios2-elf/5.3.0/../../../../../H-x86_64-mingw32/nios2-elf/lib/mno-hw-mul\libc.a(lib_a-findfp.o)
 .text.__sfmoreglue
                0x0000000004000748       0x78 c:/intelfpga_lite/18.1/nios2eds/bin/gnu/h-x86_64-mingw32/bin/../lib/gcc/nios2-elf/5.3.0/../../../../../H-x86_64-mingw32/nios2-elf/lib/mno-hw-mul\libc.a(lib_a-findfp.o)
                0x0000000004000748                __sfmoreglue
 .text.__sfp    0x00000000040007c0      0x118 c:/intelfpga_lite/18.1/nios2eds/bin/gnu/h-x86_64-mingw32/bin/../lib/gcc/nios2-elf/5.3.0/../../../../../H-x86_64-mingw32/nios2-elf/lib/mno-hw-mul\libc.a(lib_a-findfp.o)
                0x00000000040007c0                __sfp
 .text._cleanup
                0x00000000040008d8       0x18 c:/intelfpga_lite/18.1/nios2eds/bin/gnu/h-x86_64-mingw32/bin/../lib/gcc/nios2-elf/5.3.0/../../../../../H-x86_64-mingw32/nios2-elf/lib/mno-hw-mul\libc.a(lib_a-findfp.o)
                0x00000000040008d8                _cleanup
 .text.__sinit  0x00000000040008f0       0x10 c:/intelfpga_lite/18.1/nios2eds/bin/gnu/h-x86_64-mingw32/bin/../lib/gcc/nios2-elf/5.3.0/../../../../../H-x86_64-mingw32/nios2-elf/lib/mno-hw-mul\libc.a(lib_a-findfp.o)
                0x00000000040008f0                __sinit
 .text.__sfp_lock_acquire
                0x0000000004000900        0x4 c:/intelfpga_lite/18.1/nios2eds/bin/gnu/h-x86_64-mingw32/bin/../lib/gcc/nios2-elf/5.3.0/../../../../../H-x86_64-mingw32/nios2-elf/lib/mno-hw-mul\libc.a(lib_a-findfp.o)
                0x0000000004000900                __sfp_lock_acquire
 .text.__sfp_lock_release
                0x0000000004000904        0x4 c:/intelfpga_lite/18.1/nios2eds/bin/gnu/h-x86_64-mingw32/bin/../lib/gcc/nios2-elf/5.3.0/../../../../../H-x86_64-mingw32/nios2-elf/lib/mno-hw-mul\libc.a(lib_a-findfp.o)
                0x0000000004000904                __sfp_lock_release
 .text.__sinit_lock_acquire
                0x0000000004000908        0x4 c:/intelfpga_lite/18.1/nios2eds/bin/gnu/h-x86_64-mingw32/bin/../lib/gcc/nios2-elf/5.3.0/../../../../../H-x86_64-mingw32/nios2-elf/lib/mno-hw-mul\libc.a(lib_a-findfp.o)
                0x0000000004000908                __sinit_lock_acquire
 .text.__sinit_lock_release
                0x000000000400090c        0x4 c:/intelfpga_lite/18.1/nios2eds/bin/gnu/h-x86_64-mingw32/bin/../lib/gcc/nios2-elf/5.3.0/../../../../../H-x86_64-mingw32/nios2-elf/lib/mno-hw-mul\libc.a(lib_a-findfp.o)
                0x000000000400090c                __sinit_lock_release
 .text.__fp_lock_all
                0x0000000004000910       0x18 c:/intelfpga_lite/18.1/nios2eds/bin/gnu/h-x86_64-mingw32/bin/../lib/gcc/nios2-elf/5.3.0/../../../../../H-x86_64-mingw32/nios2-elf/lib/mno-hw-mul\libc.a(lib_a-findfp.o)
                0x0000000004000910                __fp_lock_all
 .text.__fp_unlock_all
                0x0000000004000928       0x18 c:/intelfpga_lite/18.1/nios2eds/bin/gnu/h-x86_64-mingw32/bin/../lib/gcc/nios2-elf/5.3.0/../../../../../H-x86_64-mingw32/nios2-elf/lib/mno-hw-mul\libc.a(lib_a-findfp.o)
                0x0000000004000928                __fp_unlock_all
 .text          0x0000000004000940        0x0 c:/intelfpga_lite/18.1/nios2eds/bin/gnu/h-x86_64-mingw32/bin/../lib/gcc/nios2-elf/5.3.0/../../../../../H-x86_64-mingw32/nios2-elf/lib/mno-hw-mul\libc.a(lib_a-fvwrite.o)
 .text.__sfvwrite_r
                0x0000000004000940      0x4c8 c:/intelfpga_lite/18.1/nios2eds/bin/gnu/h-x86_64-mingw32/bin/../lib/gcc/nios2-elf/5.3.0/../../../../../H-x86_64-mingw32/nios2-elf/lib/mno-hw-mul\libc.a(lib_a-fvwrite.o)
                0x0000000004000940                __sfvwrite_r
 .text          0x0000000004000e08        0x0 c:/intelfpga_lite/18.1/nios2eds/bin/gnu/h-x86_64-mingw32/bin/../lib/gcc/nios2-elf/5.3.0/../../../../../H-x86_64-mingw32/nios2-elf/lib/mno-hw-mul\libc.a(lib_a-fwalk.o)
 .text._fwalk   0x0000000004000e08       0xc4 c:/intelfpga_lite/18.1/nios2eds/bin/gnu/h-x86_64-mingw32/bin/../lib/gcc/nios2-elf/5.3.0/../../../../../H-x86_64-mingw32/nios2-elf/lib/mno-hw-mul\libc.a(lib_a-fwalk.o)
                0x0000000004000e08                _fwalk
 .text._fwalk_reent
                0x0000000004000ecc       0xc4 c:/intelfpga_lite/18.1/nios2eds/bin/gnu/h-x86_64-mingw32/bin/../lib/gcc/nios2-elf/5.3.0/../../../../../H-x86_64-mingw32/nios2-elf/lib/mno-hw-mul\libc.a(lib_a-fwalk.o)
                0x0000000004000ecc                _fwalk_reent
 .text          0x0000000004000f90        0x0 c:/intelfpga_lite/18.1/nios2eds/bin/gnu/h-x86_64-mingw32/bin/../lib/gcc/nios2-elf/5.3.0/../../../../../H-x86_64-mingw32/nios2-elf/lib/mno-hw-mul\libc.a(lib_a-impure.o)
 .text          0x0000000004000f90        0x0 c:/intelfpga_lite/18.1/nios2eds/bin/gnu/h-x86_64-mingw32/bin/../lib/gcc/nios2-elf/5.3.0/../../../../../H-x86_64-mingw32/nios2-elf/lib/mno-hw-mul\libc.a(lib_a-mallocr.o)
 .text._malloc_r
                0x0000000004000f90      0x80c c:/intelfpga_lite/18.1/nios2eds/bin/gnu/h-x86_64-mingw32/bin/../lib/gcc/nios2-elf/5.3.0/../../../../../H-x86_64-mingw32/nios2-elf/lib/mno-hw-mul\libc.a(lib_a-mallocr.o)
                0x0000000004000f90                _malloc_r
 .text          0x000000000400179c        0x0 c:/intelfpga_lite/18.1/nios2eds/bin/gnu/h-x86_64-mingw32/bin/../lib/gcc/nios2-elf/5.3.0/../../../../../H-x86_64-mingw32/nios2-elf/lib/mno-hw-mul\libc.a(lib_a-memchr.o)
 .text.memchr   0x000000000400179c       0xe4 c:/intelfpga_lite/18.1/nios2eds/bin/gnu/h-x86_64-mingw32/bin/../lib/gcc/nios2-elf/5.3.0/../../../../../H-x86_64-mingw32/nios2-elf/lib/mno-hw-mul\libc.a(lib_a-memchr.o)
                0x000000000400179c                memchr
 .text          0x0000000004001880        0x0 c:/intelfpga_lite/18.1/nios2eds/bin/gnu/h-x86_64-mingw32/bin/../lib/gcc/nios2-elf/5.3.0/../../../../../H-x86_64-mingw32/nios2-elf/lib/mno-hw-mul\libc.a(lib_a-memcpy.o)
 .text.memcpy   0x0000000004001880      0x148 c:/intelfpga_lite/18.1/nios2eds/bin/gnu/h-x86_64-mingw32/bin/../lib/gcc/nios2-elf/5.3.0/../../../../../H-x86_64-mingw32/nios2-elf/lib/mno-hw-mul\libc.a(lib_a-memcpy.o)
                0x0000000004001880                memcpy
 .text          0x00000000040019c8        0x0 c:/intelfpga_lite/18.1/nios2eds/bin/gnu/h-x86_64-mingw32/bin/../lib/gcc/nios2-elf/5.3.0/../../../../../H-x86_64-mingw32/nios2-elf/lib/mno-hw-mul\libc.a(lib_a-memmove.o)
 .text.memmove  0x00000000040019c8      0x15c c:/intelfpga_lite/18.1/nios2eds/bin/gnu/h-x86_64-mingw32/bin/../lib/gcc/nios2-elf/5.3.0/../../../../../H-x86_64-mingw32/nios2-elf/lib/mno-hw-mul\libc.a(lib_a-memmove.o)
                0x00000000040019c8                memmove
 .text          0x0000000004001b24        0x0 c:/intelfpga_lite/18.1/nios2eds/bin/gnu/h-x86_64-mingw32/bin/../lib/gcc/nios2-elf/5.3.0/../../../../../H-x86_64-mingw32/nios2-elf/lib/mno-hw-mul\libc.a(lib_a-memset.o)
 .text.memset   0x0000000004001b24      0x128 c:/intelfpga_lite/18.1/nios2eds/bin/gnu/h-x86_64-mingw32/bin/../lib/gcc/nios2-elf/5.3.0/../../../../../H-x86_64-mingw32/nios2-elf/lib/mno-hw-mul\libc.a(lib_a-memset.o)
                0x0000000004001b24                memset
 .text          0x0000000004001c4c        0x0 c:/intelfpga_lite/18.1/nios2eds/bin/gnu/h-x86_64-mingw32/bin/../lib/gcc/nios2-elf/5.3.0/../../../../../H-x86_64-mingw32/nios2-elf/lib/mno-hw-mul\libc.a(lib_a-reallocr.o)
 .text._realloc_r
                0x0000000004001c4c      0x564 c:/intelfpga_lite/18.1/nios2eds/bin/gnu/h-x86_64-mingw32/bin/../lib/gcc/nios2-elf/5.3.0/../../../../../H-x86_64-mingw32/nios2-elf/lib/mno-hw-mul\libc.a(lib_a-reallocr.o)
                0x0000000004001c4c                _realloc_r
 .text          0x00000000040021b0        0x0 c:/intelfpga_lite/18.1/nios2eds/bin/gnu/h-x86_64-mingw32/bin/../lib/gcc/nios2-elf/5.3.0/../../../../../H-x86_64-mingw32/nios2-elf/lib/mno-hw-mul\libc.a(lib_a-sbrkr.o)
 .text._sbrk_r  0x00000000040021b0       0x54 c:/intelfpga_lite/18.1/nios2eds/bin/gnu/h-x86_64-mingw32/bin/../lib/gcc/nios2-elf/5.3.0/../../../../../H-x86_64-mingw32/nios2-elf/lib/mno-hw-mul\libc.a(lib_a-sbrkr.o)
                0x00000000040021b0                _sbrk_r
 .text          0x0000000004002204        0x0 c:/intelfpga_lite/18.1/nios2eds/bin/gnu/h-x86_64-mingw32/bin/../lib/gcc/nios2-elf/5.3.0/../../../../../H-x86_64-mingw32/nios2-elf/lib/mno-hw-mul\libc.a(lib_a-stdio.o)
 .text.__sread  0x0000000004002204       0x54 c:/intelfpga_lite/18.1/nios2eds/bin/gnu/h-x86_64-mingw32/bin/../lib/gcc/nios2-elf/5.3.0/../../../../../H-x86_64-mingw32/nios2-elf/lib/mno-hw-mul\libc.a(lib_a-stdio.o)
                0x0000000004002204                __sread
 .text.__seofread
                0x0000000004002258        0x8 c:/intelfpga_lite/18.1/nios2eds/bin/gnu/h-x86_64-mingw32/bin/../lib/gcc/nios2-elf/5.3.0/../../../../../H-x86_64-mingw32/nios2-elf/lib/mno-hw-mul\libc.a(lib_a-stdio.o)
                0x0000000004002258                __seofread
 .text.__swrite
                0x0000000004002260       0x7c c:/intelfpga_lite/18.1/nios2eds/bin/gnu/h-x86_64-mingw32/bin/../lib/gcc/nios2-elf/5.3.0/../../../../../H-x86_64-mingw32/nios2-elf/lib/mno-hw-mul\libc.a(lib_a-stdio.o)
                0x0000000004002260                __swrite
 .text.__sseek  0x00000000040022dc       0x5c c:/intelfpga_lite/18.1/nios2eds/bin/gnu/h-x86_64-mingw32/bin/../lib/gcc/nios2-elf/5.3.0/../../../../../H-x86_64-mingw32/nios2-elf/lib/mno-hw-mul\libc.a(lib_a-stdio.o)
                0x00000000040022dc                __sseek
 .text.__sclose
                0x0000000004002338        0x8 c:/intelfpga_lite/18.1/nios2eds/bin/gnu/h-x86_64-mingw32/bin/../lib/gcc/nios2-elf/5.3.0/../../../../../H-x86_64-mingw32/nios2-elf/lib/mno-hw-mul\libc.a(lib_a-stdio.o)
                0x0000000004002338                __sclose
 .text          0x0000000004002340        0x0 c:/intelfpga_lite/18.1/nios2eds/bin/gnu/h-x86_64-mingw32/bin/../lib/gcc/nios2-elf/5.3.0/../../../../../H-x86_64-mingw32/nios2-elf/lib/mno-hw-mul\libc.a(lib_a-writer.o)
 .text._write_r
                0x0000000004002340       0x60 c:/intelfpga_lite/18.1/nios2eds/bin/gnu/h-x86_64-mingw32/bin/../lib/gcc/nios2-elf/5.3.0/../../../../../H-x86_64-mingw32/nios2-elf/lib/mno-hw-mul\libc.a(lib_a-writer.o)
                0x0000000004002340                _write_r
 .text          0x00000000040023a0        0x0 c:/intelfpga_lite/18.1/nios2eds/bin/gnu/h-x86_64-mingw32/bin/../lib/gcc/nios2-elf/5.3.0/../../../../../H-x86_64-mingw32/nios2-elf/lib/mno-hw-mul\libc.a(lib_a-wsetup.o)
 .text.__swsetup_r
                0x00000000040023a0      0x154 c:/intelfpga_lite/18.1/nios2eds/bin/gnu/h-x86_64-mingw32/bin/../lib/gcc/nios2-elf/5.3.0/../../../../../H-x86_64-mingw32/nios2-elf/lib/mno-hw-mul\libc.a(lib_a-wsetup.o)
                0x00000000040023a0                __swsetup_r
 .text          0x00000000040024f4        0x0 c:/intelfpga_lite/18.1/nios2eds/bin/gnu/h-x86_64-mingw32/bin/../lib/gcc/nios2-elf/5.3.0/../../../../../H-x86_64-mingw32/nios2-elf/lib/mno-hw-mul\libc.a(closer.o)
 .text._close_r
                0x00000000040024f4       0x54 c:/intelfpga_lite/18.1/nios2eds/bin/gnu/h-x86_64-mingw32/bin/../lib/gcc/nios2-elf/5.3.0/../../../../../H-x86_64-mingw32/nios2-elf/lib/mno-hw-mul\libc.a(closer.o)
                0x00000000040024f4                _close_r
 .text          0x0000000004002548        0x0 c:/intelfpga_lite/18.1/nios2eds/bin/gnu/h-x86_64-mingw32/bin/../lib/gcc/nios2-elf/5.3.0/../../../../../H-x86_64-mingw32/nios2-elf/lib/mno-hw-mul\libc.a(lib_a-fclose.o)
 .text._fclose_r
                0x0000000004002548       0xf0 c:/intelfpga_lite/18.1/nios2eds/bin/gnu/h-x86_64-mingw32/bin/../lib/gcc/nios2-elf/5.3.0/../../../../../H-x86_64-mingw32/nios2-elf/lib/mno-hw-mul\libc.a(lib_a-fclose.o)
                0x0000000004002548                _fclose_r
 .text.fclose   0x0000000004002638       0x14 c:/intelfpga_lite/18.1/nios2eds/bin/gnu/h-x86_64-mingw32/bin/../lib/gcc/nios2-elf/5.3.0/../../../../../H-x86_64-mingw32/nios2-elf/lib/mno-hw-mul\libc.a(lib_a-fclose.o)
                0x0000000004002638                fclose
 .text          0x000000000400264c        0x0 c:/intelfpga_lite/18.1/nios2eds/bin/gnu/h-x86_64-mingw32/bin/../lib/gcc/nios2-elf/5.3.0/../../../../../H-x86_64-mingw32/nios2-elf/lib/mno-hw-mul\libc.a(lib_a-fflush.o)
 .text.__sflush_r
                0x000000000400264c      0x21c c:/intelfpga_lite/18.1/nios2eds/bin/gnu/h-x86_64-mingw32/bin/../lib/gcc/nios2-elf/5.3.0/../../../../../H-x86_64-mingw32/nios2-elf/lib/mno-hw-mul\libc.a(lib_a-fflush.o)
                0x000000000400264c                __sflush_r
 .text._fflush_r
                0x0000000004002868       0x5c c:/intelfpga_lite/18.1/nios2eds/bin/gnu/h-x86_64-mingw32/bin/../lib/gcc/nios2-elf/5.3.0/../../../../../H-x86_64-mingw32/nios2-elf/lib/mno-hw-mul\libc.a(lib_a-fflush.o)
                0x0000000004002868                _fflush_r
 .text.fflush   0x00000000040028c4       0x30 c:/intelfpga_lite/18.1/nios2eds/bin/gnu/h-x86_64-mingw32/bin/../lib/gcc/nios2-elf/5.3.0/../../../../../H-x86_64-mingw32/nios2-elf/lib/mno-hw-mul\libc.a(lib_a-fflush.o)
                0x00000000040028c4                fflush
 .text          0x00000000040028f4        0x0 c:/intelfpga_lite/18.1/nios2eds/bin/gnu/h-x86_64-mingw32/bin/../lib/gcc/nios2-elf/5.3.0/../../../../../H-x86_64-mingw32/nios2-elf/lib/mno-hw-mul\libc.a(lib_a-freer.o)
 .text._malloc_trim_r
                0x00000000040028f4      0x124 c:/intelfpga_lite/18.1/nios2eds/bin/gnu/h-x86_64-mingw32/bin/../lib/gcc/nios2-elf/5.3.0/../../../../../H-x86_64-mingw32/nios2-elf/lib/mno-hw-mul\libc.a(lib_a-freer.o)
                0x00000000040028f4                _malloc_trim_r
 .text._free_r  0x0000000004002a18      0x310 c:/intelfpga_lite/18.1/nios2eds/bin/gnu/h-x86_64-mingw32/bin/../lib/gcc/nios2-elf/5.3.0/../../../../../H-x86_64-mingw32/nios2-elf/lib/mno-hw-mul\libc.a(lib_a-freer.o)
                0x0000000004002a18                _free_r
 .text          0x0000000004002d28        0x0 c:/intelfpga_lite/18.1/nios2eds/bin/gnu/h-x86_64-mingw32/bin/../lib/gcc/nios2-elf/5.3.0/../../../../../H-x86_64-mingw32/nios2-elf/lib/mno-hw-mul\libc.a(lib_a-int_errno.o)
 .text          0x0000000004002d28        0x0 c:/intelfpga_lite/18.1/nios2eds/bin/gnu/h-x86_64-mingw32/bin/../lib/gcc/nios2-elf/5.3.0/../../../../../H-x86_64-mingw32/nios2-elf/lib/mno-hw-mul\libc.a(lib_a-lseekr.o)
 .text._lseek_r
                0x0000000004002d28       0x60 c:/intelfpga_lite/18.1/nios2eds/bin/gnu/h-x86_64-mingw32/bin/../lib/gcc/nios2-elf/5.3.0/../../../../../H-x86_64-mingw32/nios2-elf/lib/mno-hw-mul\libc.a(lib_a-lseekr.o)
                0x0000000004002d28                _lseek_r
 .text          0x0000000004002d88        0x0 c:/intelfpga_lite/18.1/nios2eds/bin/gnu/h-x86_64-mingw32/bin/../lib/gcc/nios2-elf/5.3.0/../../../../../H-x86_64-mingw32/nios2-elf/lib/mno-hw-mul\libc.a(lib_a-makebuf.o)
 .text.__smakebuf_r
                0x0000000004002d88      0x1bc c:/intelfpga_lite/18.1/nios2eds/bin/gnu/h-x86_64-mingw32/bin/../lib/gcc/nios2-elf/5.3.0/../../../../../H-x86_64-mingw32/nios2-elf/lib/mno-hw-mul\libc.a(lib_a-makebuf.o)
                0x0000000004002d88                __smakebuf_r
 .text          0x0000000004002f44        0x0 c:/intelfpga_lite/18.1/nios2eds/bin/gnu/h-x86_64-mingw32/bin/../lib/gcc/nios2-elf/5.3.0/../../../../../H-x86_64-mingw32/nios2-elf/lib/mno-hw-mul\libc.a(lib_a-readr.o)
 .text._read_r  0x0000000004002f44       0x60 c:/intelfpga_lite/18.1/nios2eds/bin/gnu/h-x86_64-mingw32/bin/../lib/gcc/nios2-elf/5.3.0/../../../../../H-x86_64-mingw32/nios2-elf/lib/mno-hw-mul\libc.a(lib_a-readr.o)
                0x0000000004002f44                _read_r
 .text          0x0000000004002fa4        0x0 c:/intelfpga_lite/18.1/nios2eds/bin/gnu/h-x86_64-mingw32/bin/../lib/gcc/nios2-elf/5.3.0/../../../../../H-x86_64-mingw32/nios2-elf/lib/mno-hw-mul\libc.a(lib_a-fstatr.o)
 .text._fstat_r
                0x0000000004002fa4       0x5c c:/intelfpga_lite/18.1/nios2eds/bin/gnu/h-x86_64-mingw32/bin/../lib/gcc/nios2-elf/5.3.0/../../../../../H-x86_64-mingw32/nios2-elf/lib/mno-hw-mul\libc.a(lib_a-fstatr.o)
                0x0000000004002fa4                _fstat_r
 .text          0x0000000004003000        0x0 c:/intelfpga_lite/18.1/nios2eds/bin/gnu/h-x86_64-mingw32/bin/../lib/gcc/nios2-elf/5.3.0/../../../../../H-x86_64-mingw32/nios2-elf/lib/mno-hw-mul\libc.a(lib_a-isattyr.o)
 .text._isatty_r
                0x0000000004003000       0x54 c:/intelfpga_lite/18.1/nios2eds/bin/gnu/h-x86_64-mingw32/bin/../lib/gcc/nios2-elf/5.3.0/../../../../../H-x86_64-mingw32/nios2-elf/lib/mno-hw-mul\libc.a(lib_a-isattyr.o)
                0x0000000004003000                _isatty_r
 .text          0x0000000004003054      0x1b4 c:/intelfpga_lite/18.1/nios2eds/bin/gnu/h-x86_64-mingw32/bin/../lib/gcc/nios2-elf/5.3.0/mno-hw-mul\libgcc.a(lib2-divmod.o)
                0x0000000004003054                __divsi3
                0x00000000040030d8                __modsi3
                0x000000000400314c                __udivsi3
                0x00000000040031b0                __umodsi3
 .text          0x0000000004003208       0x28 c:/intelfpga_lite/18.1/nios2eds/bin/gnu/h-x86_64-mingw32/bin/../lib/gcc/nios2-elf/5.3.0/mno-hw-mul\libgcc.a(lib2-mul.o)
                0x0000000004003208                __mulsi3
 .text          0x0000000004003230      0x114 H:/Real_Time/TP_bsp/\libucosii_bsp.a(alt_close.o)
                0x000000000400326c                close
 .text          0x0000000004003344       0x2c H:/Real_Time/TP_bsp/\libucosii_bsp.a(alt_dev.o)
 .text          0x0000000004003370        0x0 H:/Real_Time/TP_bsp/\libucosii_bsp.a(alt_errno.o)
 .text          0x0000000004003370       0xf4 H:/Real_Time/TP_bsp/\libucosii_bsp.a(alt_fstat.o)
                0x00000000040033ac                fstat
 .text          0x0000000004003464       0xe8 H:/Real_Time/TP_bsp/\libucosii_bsp.a(alt_isatty.o)
                0x00000000040034a0                isatty
 .text          0x000000000400354c       0xec H:/Real_Time/TP_bsp/\libucosii_bsp.a(alt_load.o)
                0x00000000040035b4                alt_load
 .text          0x0000000004003638      0x118 H:/Real_Time/TP_bsp/\libucosii_bsp.a(alt_lseek.o)
                0x0000000004003674                lseek
 .text          0x0000000004003750       0xbc H:/Real_Time/TP_bsp/\libucosii_bsp.a(alt_main.o)
                0x0000000004003750                alt_main
 .text          0x000000000400380c      0x140 H:/Real_Time/TP_bsp/\libucosii_bsp.a(alt_read.o)
                0x0000000004003848                read
 .text          0x000000000400394c       0x84 H:/Real_Time/TP_bsp/\libucosii_bsp.a(alt_release_fd.o)
                0x000000000400394c                alt_release_fd
 .text          0x00000000040039d0       0xb0 H:/Real_Time/TP_bsp/\libucosii_bsp.a(alt_sbrk.o)
                0x00000000040039d0                sbrk
 .text          0x0000000004003a80      0x13c H:/Real_Time/TP_bsp/\libucosii_bsp.a(alt_write.o)
                0x0000000004003abc                write
 .text          0x0000000004003bbc      0x124 H:/Real_Time/TP_bsp/\libucosii_bsp.a(alt_env_lock.o)
                0x0000000004003bbc                __env_lock
                0x0000000004003c80                __env_unlock
 .text          0x0000000004003ce0      0x1ec H:/Real_Time/TP_bsp/\libucosii_bsp.a(alt_malloc_lock.o)
                0x0000000004003ce0                __malloc_lock
                0x0000000004003e00                __malloc_unlock
 .text          0x0000000004003ecc     0x2014 H:/Real_Time/TP_bsp/\libucosii_bsp.a(os_core.o)
                0x0000000004003ecc                OSEventNameGet
                0x0000000004003fec                OSEventNameSet
                0x000000000400412c                OSEventPendMulti
                0x000000000400473c                OSInit
                0x0000000004004794                OSIntEnter
                0x00000000040047e0                OSIntExit
                0x00000000040048d8                OSSchedLock
                0x0000000004004964                OSSchedUnlock
                0x0000000004004a40                OSStart
                0x0000000004004ab0                OSStatInit
                0x0000000004004b60                OSTimeTick
                0x0000000004004d80                OSVersion
                0x0000000004004da0                OS_Dummy
                0x0000000004004dc0                OS_EventTaskRdy
                0x0000000004004f58                OS_EventTaskWait
                0x0000000004005068                OS_EventTaskWaitMulti
                0x00000000040051b8                OS_EventTaskRemove
                0x0000000004005270                OS_EventTaskRemoveMulti
                0x0000000004005370                OS_EventWaitListInit
                0x0000000004005750                OS_MemClr
                0x00000000040057a4                OS_MemCopy
                0x000000000400580c                OS_Sched
                0x0000000004005950                OS_StrCopy
                0x00000000040059c4                OS_StrLen
                0x0000000004005a18                OS_TaskIdle
                0x0000000004005a74                OS_TaskStat
                0x0000000004005b40                OS_TaskStatStkChk
                0x0000000004005c0c                OS_TCBInit
 .text          0x0000000004005ee0      0x190 H:/Real_Time/TP_bsp/\libucosii_bsp.a(os_dbg.o)
                0x0000000004005ee0                OSDebugInit
 .text          0x0000000004006070     0x1714 H:/Real_Time/TP_bsp/\libucosii_bsp.a(os_flag.o)
                0x0000000004006070                OSFlagAccept
                0x0000000004006378                OSFlagCreate
                0x0000000004006480                OSFlagDel
                0x00000000040066c8                OSFlagNameGet
                0x00000000040067f0                OSFlagNameSet
                0x000000000400693c                OSFlagPend
                0x0000000004006ef4                OSFlagPendGetFlagsRdy
                0x0000000004006f54                OSFlagPost
                0x00000000040072e8                OSFlagQuery
                0x000000000400750c                OS_FlagInit
                0x00000000040076e0                OS_FlagUnlink
 .text          0x0000000004007784      0x760 H:/Real_Time/TP_bsp/\libucosii_bsp.a(os_mem.o)
                0x0000000004007784                OSMemCreate
                0x0000000004007958                OSMemGet
                0x0000000004007a48                OSMemNameGet
                0x0000000004007b38                OSMemNameSet
                0x0000000004007c4c                OSMemPut
                0x0000000004007d24                OSMemQuery
                0x0000000004007e0c                OS_MemInit
 .text          0x0000000004007ee4     0x1104 H:/Real_Time/TP_bsp/\libucosii_bsp.a(os_q.o)
                0x0000000004007ee4                OSQAccept
                0x0000000004008024                OSQCreate
                0x00000000040081d0                OSQDel
                0x0000000004008450                OSQFlush
                0x0000000004008508                OSQPend
                0x0000000004008794                OSQPendAbort
                0x0000000004008900                OSQPost
                0x0000000004008a68                OSQPostFront
                0x0000000004008bd8                OSQPostOpt
                0x0000000004008de4                OSQQuery
                0x0000000004008f40                OS_QInit
 .text          0x0000000004008fe8      0xa60 H:/Real_Time/TP_bsp/\libucosii_bsp.a(os_sem.o)
                0x0000000004008fe8                OSSemAccept
                0x0000000004009098                OSSemCreate
                0x0000000004009170                OSSemDel
                0x00000000040093b0                OSSemPend
                0x00000000040095bc                OSSemPendAbort
                0x0000000004009728                OSSemPost
                0x0000000004009838                OSSemQuery
                0x0000000004009948                OSSemSet
 .text          0x0000000004009a48     0x176c H:/Real_Time/TP_bsp/\libucosii_bsp.a(os_task.o)
                0x0000000004009a48                OSTaskChangePrio
                0x0000000004009f38                OSTaskCreate
                0x000000000400a0e4                OSTaskCreateExt
                0x000000000400a2c8                OSTaskDel
                0x000000000400a60c                OSTaskDelReq
                0x000000000400a75c                OSTaskNameGet
                0x000000000400a8f4                OSTaskNameSet
                0x000000000400aaa8                OSTaskResume
                0x000000000400ac7c                OSTaskStkChk
                0x000000000400ae3c                OSTaskSuspend
                0x000000000400b020                OSTaskQuery
                0x000000000400b144                OS_TaskStkClr
 .text          0x000000000400b1b4      0x4f8 H:/Real_Time/TP_bsp/\libucosii_bsp.a(os_time.o)
                0x000000000400b1b4                OSTimeDly
                0x000000000400b2b8                OSTimeDlyHMSM
                0x000000000400b41c                OSTimeDlyResume
                0x000000000400b5f0                OSTimeGet
                0x000000000400b64c                OSTimeSet
 .text          0x000000000400b6ac       0xe0 H:/Real_Time/TP_bsp/\libucosii_bsp.a(alt_sys_init.o)
                0x000000000400b6e0                alt_irq_init
                0x000000000400b718                alt_sys_init
 .text          0x000000000400b78c      0x164 H:/Real_Time/TP_bsp/\libucosii_bsp.a(altera_avalon_jtag_uart_fd.o)
                0x000000000400b78c                altera_avalon_jtag_uart_read_fd
                0x000000000400b7ec                altera_avalon_jtag_uart_write_fd
                0x000000000400b84c                altera_avalon_jtag_uart_close_fd
                0x000000000400b89c                altera_avalon_jtag_uart_ioctl_fd
 .text          0x000000000400b8f0      0x558 H:/Real_Time/TP_bsp/\libucosii_bsp.a(altera_avalon_jtag_uart_init.o)
                0x000000000400b8f0                altera_avalon_jtag_uart_init
                0x000000000400bde0                altera_avalon_jtag_uart_close
 .text          0x000000000400be48       0xf0 H:/Real_Time/TP_bsp/\libucosii_bsp.a(altera_avalon_jtag_uart_ioctl.o)
                0x000000000400be48                altera_avalon_jtag_uart_ioctl
 .text          0x000000000400bf38      0x2bc H:/Real_Time/TP_bsp/\libucosii_bsp.a(altera_avalon_jtag_uart_read.o)
                0x000000000400bf38                altera_avalon_jtag_uart_read
 .text          0x000000000400c1f4      0x2c4 H:/Real_Time/TP_bsp/\libucosii_bsp.a(altera_avalon_jtag_uart_write.o)
                0x000000000400c1f4                altera_avalon_jtag_uart_write
 .text          0x000000000400c4b8       0xf4 H:/Real_Time/TP_bsp/\libucosii_bsp.a(altera_avalon_timer_sc.o)
                0x000000000400c530                alt_avalon_timer_sc_init
 .text          0x000000000400c5ac      0x56c H:/Real_Time/TP_bsp/\libucosii_bsp.a(altera_modular_adc.o)
                0x000000000400c654                alt_adc_word_read
                0x000000000400c700                altera_modular_adc_init
                0x000000000400c774                alt_adc_register_callback
                0x000000000400c80c                altera_modular_adc_open
                0x000000000400c84c                adc_stop
                0x000000000400c89c                adc_start
                0x000000000400c8d4                adc_set_mode_run_once
                0x000000000400c914                adc_set_mode_run_continuously
                0x000000000400c950                adc_recalibrate
                0x000000000400c9cc                adc_interrupt_enable
                0x000000000400ca10                adc_interrupt_disable
                0x000000000400ca58                adc_clear_interrupt_status
                0x000000000400ca9c                adc_interrupt_asserted
                0x000000000400cadc                adc_wait_for_interrupt
 .text          0x000000000400cb18      0x12c H:/Real_Time/TP_bsp/\libucosii_bsp.a(alt_alarm_start.o)
                0x000000000400cb18                alt_alarm_start
 .text          0x000000000400cc44       0x20 H:/Real_Time/TP_bsp/\libucosii_bsp.a(alt_dcache_flush_all.o)
                0x000000000400cc44                alt_dcache_flush_all
 .text          0x000000000400cc64       0xe0 H:/Real_Time/TP_bsp/\libucosii_bsp.a(alt_dev_llist_insert.o)
                0x000000000400cca0                alt_dev_llist_insert
 .text          0x000000000400cd44       0x60 H:/Real_Time/TP_bsp/\libucosii_bsp.a(alt_do_ctors.o)
                0x000000000400cd44                _do_ctors
 .text          0x000000000400cda4       0x60 H:/Real_Time/TP_bsp/\libucosii_bsp.a(alt_do_dtors.o)
                0x000000000400cda4                _do_dtors
 .text          0x000000000400ce04       0x90 H:/Real_Time/TP_bsp/\libucosii_bsp.a(alt_find_dev.o)
                0x000000000400ce04                alt_find_dev
 .text          0x000000000400ce94       0x20 H:/Real_Time/TP_bsp/\libucosii_bsp.a(alt_icache_flush_all.o)
                0x000000000400ce94                alt_icache_flush_all
 .text          0x000000000400ceb4      0x1b0 H:/Real_Time/TP_bsp/\libucosii_bsp.a(alt_iic.o)
                0x000000000400ceb4                alt_ic_isr_register
                0x000000000400cf04                alt_ic_irq_enable
                0x000000000400cf8c                alt_ic_irq_disable
                0x000000000400d018                alt_ic_irq_enabled
 .text          0x000000000400d064       0xf0 H:/Real_Time/TP_bsp/\libucosii_bsp.a(alt_iic_isr_register.o)
                0x000000000400d064                alt_iic_isr_register
 .text          0x000000000400d154      0x160 H:/Real_Time/TP_bsp/\libucosii_bsp.a(alt_io_redirect.o)
                0x000000000400d238                alt_io_redirect
 .text          0x000000000400d2b4        0x0 H:/Real_Time/TP_bsp/\libucosii_bsp.a(alt_irq_entry.o)
 .text          0x000000000400d2b4        0x0 H:/Real_Time/TP_bsp/\libucosii_bsp.a(alt_irq_handler.o)
 .text          0x000000000400d2b4        0x0 H:/Real_Time/TP_bsp/\libucosii_bsp.a(alt_irq_vars.o)
 .text          0x000000000400d2b4      0x284 H:/Real_Time/TP_bsp/\libucosii_bsp.a(alt_open.o)
                0x000000000400d3dc                open
 .text          0x000000000400d538      0x1a4 H:/Real_Time/TP_bsp/\libucosii_bsp.a(alt_tick.o)
                0x000000000400d538                alt_alarm_stop
                0x000000000400d5d4                alt_tick
 .text          0x000000000400d6dc       0x24 H:/Real_Time/TP_bsp/\libucosii_bsp.a(altera_nios2_gen2_irq.o)
                0x000000000400d6dc                altera_nios2_gen2_irq_init
 .text          0x000000000400d700       0xd0 H:/Real_Time/TP_bsp/\libucosii_bsp.a(os_cpu_a.o)
                0x000000000400d700                OSCtxSw
                0x000000000400d700                OSIntCtxSw
                0x000000000400d78c                OSStartHighRdy
                0x000000000400d7ac                OSStartTsk
 .text          0x000000000400d7d0      0x288 H:/Real_Time/TP_bsp/\libucosii_bsp.a(os_cpu_c.o)
                0x000000000400d7d0                OSTaskStkInit
                0x000000000400d92c                OSTaskCreateHook
                0x000000000400d950                OSTaskDelHook
                0x000000000400d974                OSTaskSwHook
                0x000000000400d994                OSTaskStatHook
                0x000000000400d9b4                OSTimeTickHook
                0x000000000400d9d4                OSInitHookBegin
                0x000000000400d9f4                OSInitHookEnd
                0x000000000400da14                OSTaskIdleHook
                0x000000000400da34                OSTCBInitHook
 .text          0x000000000400da58        0x0 H:/Real_Time/TP_bsp/\libucosii_bsp.a(alt_exception_entry.o)
 .text          0x000000000400da58      0x108 H:/Real_Time/TP_bsp/\libucosii_bsp.a(alt_find_file.o)
                0x000000000400da58                alt_find_file
 .text          0x000000000400db60       0xf4 H:/Real_Time/TP_bsp/\libucosii_bsp.a(alt_get_fd.o)
                0x000000000400db60                alt_get_fd
 .text          0x000000000400dc54       0x9c H:/Real_Time/TP_bsp/\libucosii_bsp.a(alt_instruction_exception_entry.o)
                0x000000000400dc54                alt_exception_cause_generated_bad_addr
 .text          0x000000000400dcf0        0x0 c:/intelfpga_lite/18.1/nios2eds/bin/gnu/h-x86_64-mingw32/bin/../lib/gcc/nios2-elf/5.3.0/../../../../../H-x86_64-mingw32/nios2-elf/lib/mno-hw-mul\libc.a(lib_a-atexit.o)
 .text.atexit   0x000000000400dcf0       0x14 c:/intelfpga_lite/18.1/nios2eds/bin/gnu/h-x86_64-mingw32/bin/../lib/gcc/nios2-elf/5.3.0/../../../../../H-x86_64-mingw32/nios2-elf/lib/mno-hw-mul\libc.a(lib_a-atexit.o)
                0x000000000400dcf0                atexit
 .text          0x000000000400dd04        0x0 c:/intelfpga_lite/18.1/nios2eds/bin/gnu/h-x86_64-mingw32/bin/../lib/gcc/nios2-elf/5.3.0/../../../../../H-x86_64-mingw32/nios2-elf/lib/mno-hw-mul\libc.a(lib_a-exit.o)
 .text.exit     0x000000000400dd04       0x38 c:/intelfpga_lite/18.1/nios2eds/bin/gnu/h-x86_64-mingw32/bin/../lib/gcc/nios2-elf/5.3.0/../../../../../H-x86_64-mingw32/nios2-elf/lib/mno-hw-mul\libc.a(lib_a-exit.o)
                0x000000000400dd04                exit
 .text          0x000000000400dd3c        0x0 c:/intelfpga_lite/18.1/nios2eds/bin/gnu/h-x86_64-mingw32/bin/../lib/gcc/nios2-elf/5.3.0/../../../../../H-x86_64-mingw32/nios2-elf/lib/mno-hw-mul\libc.a(lib_a-memcmp.o)
 .text.memcmp   0x000000000400dd3c       0x7c c:/intelfpga_lite/18.1/nios2eds/bin/gnu/h-x86_64-mingw32/bin/../lib/gcc/nios2-elf/5.3.0/../../../../../H-x86_64-mingw32/nios2-elf/lib/mno-hw-mul\libc.a(lib_a-memcmp.o)
                0x000000000400dd3c                memcmp
 .text          0x000000000400ddb8        0x0 c:/intelfpga_lite/18.1/nios2eds/bin/gnu/h-x86_64-mingw32/bin/../lib/gcc/nios2-elf/5.3.0/../../../../../H-x86_64-mingw32/nios2-elf/lib/mno-hw-mul\libc.a(lib_a-__atexit.o)
 .text.__register_exitproc
                0x000000000400ddb8      0x118 c:/intelfpga_lite/18.1/nios2eds/bin/gnu/h-x86_64-mingw32/bin/../lib/gcc/nios2-elf/5.3.0/../../../../../H-x86_64-mingw32/nios2-elf/lib/mno-hw-mul\libc.a(lib_a-__atexit.o)
                0x000000000400ddb8                __register_exitproc
 .text          0x000000000400ded0        0x0 c:/intelfpga_lite/18.1/nios2eds/bin/gnu/h-x86_64-mingw32/bin/../lib/gcc/nios2-elf/5.3.0/../../../../../H-x86_64-mingw32/nios2-elf/lib/mno-hw-mul\libc.a(lib_a-__call_atexit.o)
 .text.__call_exitprocs
                0x000000000400ded0      0x180 c:/intelfpga_lite/18.1/nios2eds/bin/gnu/h-x86_64-mingw32/bin/../lib/gcc/nios2-elf/5.3.0/../../../../../H-x86_64-mingw32/nios2-elf/lib/mno-hw-mul\libc.a(lib_a-__call_atexit.o)
                0x000000000400ded0                __call_exitprocs
 .text          0x000000000400e050       0x34 H:/Real_Time/TP_bsp/\libucosii_bsp.a(alt_exit.o)
                0x000000000400e050                _exit
 *(.gnu.warning.*)
 *(.fini)
                [!provide]                        PROVIDE (__etext, ABSOLUTE (.))
                [!provide]                        PROVIDE (_etext, ABSOLUTE (.))
                [!provide]                        PROVIDE (etext, ABSOLUTE (.))
 *(.eh_frame_hdr)
                0x000000000400e084                . = ALIGN (0x4)
                [!provide]                        PROVIDE (__preinit_array_start, ABSOLUTE (.))
 *(.preinit_array)
                [!provide]                        PROVIDE (__preinit_array_end, ABSOLUTE (.))
                [!provide]                        PROVIDE (__init_array_start, ABSOLUTE (.))
 *(.init_array)
                [!provide]                        PROVIDE (__init_array_end, ABSOLUTE (.))
                [!provide]                        PROVIDE (__fini_array_start, ABSOLUTE (.))
 *(.fini_array)
                [!provide]                        PROVIDE (__fini_array_end, ABSOLUTE (.))
 *(.eh_frame)
 *(.gcc_except_table .gcc_except_table.*)
 *(.dynamic)
                0x000000000400e084                PROVIDE (__CTOR_LIST__, ABSOLUTE (.))
 *(.ctors)
 *(SORT(.ctors.*))
                0x000000000400e084                PROVIDE (__CTOR_END__, ABSOLUTE (.))
                0x000000000400e084                PROVIDE (__DTOR_LIST__, ABSOLUTE (.))
 *(.dtors)
 *(SORT(.dtors.*))
                0x000000000400e084                PROVIDE (__DTOR_END__, ABSOLUTE (.))
 *(.jcr)
                0x000000000400e084                . = ALIGN (0x4)

.rodata         0x000000000400e084      0x490
                0x000000000400e084                PROVIDE (__ram_rodata_start, ABSOLUTE (.))
                0x000000000400e084                . = ALIGN (0x4)
 *(.rodata .rodata.* .gnu.linkonce.r.*)
 .rodata        0x000000000400e084      0x30b obj/default/hello_ucosii.o
 *fill*         0x000000000400e38f        0x1 
 .rodata.str1.4
                0x000000000400e390        0x2 c:/intelfpga_lite/18.1/nios2eds/bin/gnu/h-x86_64-mingw32/bin/../lib/gcc/nios2-elf/5.3.0/../../../../../H-x86_64-mingw32/nios2-elf/lib/mno-hw-mul\libc.a(lib_a-puts.o)
 *fill*         0x000000000400e392        0x2 
 .rodata.str1.4
                0x000000000400e394        0x4 c:/intelfpga_lite/18.1/nios2eds/bin/gnu/h-x86_64-mingw32/bin/../lib/gcc/nios2-elf/5.3.0/../../../../../H-x86_64-mingw32/nios2-elf/lib/mno-hw-mul\libc.a(lib_a-impure.o)
                                          0x2 (size before relaxing)
 .rodata        0x000000000400e398        0xa H:/Real_Time/TP_bsp/\libucosii_bsp.a(alt_dev.o)
 *fill*         0x000000000400e3a2        0x2 
 .rodata        0x000000000400e3a4       0x11 H:/Real_Time/TP_bsp/\libucosii_bsp.a(alt_main.o)
 *fill*         0x000000000400e3b5        0x3 
 .rodata        0x000000000400e3b8      0x11e H:/Real_Time/TP_bsp/\libucosii_bsp.a(os_core.o)
                0x000000000400e3b8                OSUnMapTbl
 *fill*         0x000000000400e4d6        0x2 
 .rodata        0x000000000400e4d8       0x35 H:/Real_Time/TP_bsp/\libucosii_bsp.a(alt_sys_init.o)
 *fill*         0x000000000400e50d        0x3 
 .rodata        0x000000000400e510        0x2 H:/Real_Time/TP_bsp/\libucosii_bsp.a(os_cpu_c.o)
 *(.rodata1)
                0x000000000400e514                . = ALIGN (0x4)
 *fill*         0x000000000400e512        0x2 
                0x000000000400e514                PROVIDE (__ram_rodata_end, ABSOLUTE (.))
                0x000000000400e084                PROVIDE (__flash_rodata_start, LOADADDR (.rodata))

.rwdata         0x000000000400e514     0x1b38 load address 0x000000000401004c
                0x000000000400e514                PROVIDE (__ram_rwdata_start, ABSOLUTE (.))
                0x000000000400e514                . = ALIGN (0x4)
 *(.got.plt)
 *(.got)
 *(.data1)
 *(.data .data.* .gnu.linkonce.d.*)
 .data          0x000000000400e514        0x0 H:/Real_Time/TP_bsp//obj/HAL/src/crt0.o
 .data          0x000000000400e514        0x0 obj/default/hello_ucosii.o
 .data          0x000000000400e514        0x0 c:/intelfpga_lite/18.1/nios2eds/bin/gnu/h-x86_64-mingw32/bin/../lib/gcc/nios2-elf/5.3.0/../../../../../H-x86_64-mingw32/nios2-elf/lib/mno-hw-mul\libc.a(lib_a-puts.o)
 .data          0x000000000400e514        0x0 c:/intelfpga_lite/18.1/nios2eds/bin/gnu/h-x86_64-mingw32/bin/../lib/gcc/nios2-elf/5.3.0/../../../../../H-x86_64-mingw32/nios2-elf/lib/mno-hw-mul\libc.a(lib_a-strlen.o)
 .data          0x000000000400e514        0x0 c:/intelfpga_lite/18.1/nios2eds/bin/gnu/h-x86_64-mingw32/bin/../lib/gcc/nios2-elf/5.3.0/../../../../../H-x86_64-mingw32/nios2-elf/lib/mno-hw-mul\libc.a(lib_a-findfp.o)
 .data          0x000000000400e514        0x0 c:/intelfpga_lite/18.1/nios2eds/bin/gnu/h-x86_64-mingw32/bin/../lib/gcc/nios2-elf/5.3.0/../../../../../H-x86_64-mingw32/nios2-elf/lib/mno-hw-mul\libc.a(lib_a-fvwrite.o)
 .data          0x000000000400e514        0x0 c:/intelfpga_lite/18.1/nios2eds/bin/gnu/h-x86_64-mingw32/bin/../lib/gcc/nios2-elf/5.3.0/../../../../../H-x86_64-mingw32/nios2-elf/lib/mno-hw-mul\libc.a(lib_a-fwalk.o)
 .data          0x000000000400e514        0x0 c:/intelfpga_lite/18.1/nios2eds/bin/gnu/h-x86_64-mingw32/bin/../lib/gcc/nios2-elf/5.3.0/../../../../../H-x86_64-mingw32/nios2-elf/lib/mno-hw-mul\libc.a(lib_a-impure.o)
 .data.impure_data
                0x000000000400e514      0x424 c:/intelfpga_lite/18.1/nios2eds/bin/gnu/h-x86_64-mingw32/bin/../lib/gcc/nios2-elf/5.3.0/../../../../../H-x86_64-mingw32/nios2-elf/lib/mno-hw-mul\libc.a(lib_a-impure.o)
 .data          0x000000000400e938        0x0 c:/intelfpga_lite/18.1/nios2eds/bin/gnu/h-x86_64-mingw32/bin/../lib/gcc/nios2-elf/5.3.0/../../../../../H-x86_64-mingw32/nios2-elf/lib/mno-hw-mul\libc.a(lib_a-mallocr.o)
 .data.__malloc_av_
                0x000000000400e938      0x408 c:/intelfpga_lite/18.1/nios2eds/bin/gnu/h-x86_64-mingw32/bin/../lib/gcc/nios2-elf/5.3.0/../../../../../H-x86_64-mingw32/nios2-elf/lib/mno-hw-mul\libc.a(lib_a-mallocr.o)
                0x000000000400e938                __malloc_av_
 .data          0x000000000400ed40        0x0 c:/intelfpga_lite/18.1/nios2eds/bin/gnu/h-x86_64-mingw32/bin/../lib/gcc/nios2-elf/5.3.0/../../../../../H-x86_64-mingw32/nios2-elf/lib/mno-hw-mul\libc.a(lib_a-memchr.o)
 .data          0x000000000400ed40        0x0 c:/intelfpga_lite/18.1/nios2eds/bin/gnu/h-x86_64-mingw32/bin/../lib/gcc/nios2-elf/5.3.0/../../../../../H-x86_64-mingw32/nios2-elf/lib/mno-hw-mul\libc.a(lib_a-memcpy.o)
 .data          0x000000000400ed40        0x0 c:/intelfpga_lite/18.1/nios2eds/bin/gnu/h-x86_64-mingw32/bin/../lib/gcc/nios2-elf/5.3.0/../../../../../H-x86_64-mingw32/nios2-elf/lib/mno-hw-mul\libc.a(lib_a-memmove.o)
 .data          0x000000000400ed40        0x0 c:/intelfpga_lite/18.1/nios2eds/bin/gnu/h-x86_64-mingw32/bin/../lib/gcc/nios2-elf/5.3.0/../../../../../H-x86_64-mingw32/nios2-elf/lib/mno-hw-mul\libc.a(lib_a-memset.o)
 .data          0x000000000400ed40        0x0 c:/intelfpga_lite/18.1/nios2eds/bin/gnu/h-x86_64-mingw32/bin/../lib/gcc/nios2-elf/5.3.0/../../../../../H-x86_64-mingw32/nios2-elf/lib/mno-hw-mul\libc.a(lib_a-reallocr.o)
 .data          0x000000000400ed40        0x0 c:/intelfpga_lite/18.1/nios2eds/bin/gnu/h-x86_64-mingw32/bin/../lib/gcc/nios2-elf/5.3.0/../../../../../H-x86_64-mingw32/nios2-elf/lib/mno-hw-mul\libc.a(lib_a-sbrkr.o)
 .data          0x000000000400ed40        0x0 c:/intelfpga_lite/18.1/nios2eds/bin/gnu/h-x86_64-mingw32/bin/../lib/gcc/nios2-elf/5.3.0/../../../../../H-x86_64-mingw32/nios2-elf/lib/mno-hw-mul\libc.a(lib_a-stdio.o)
 .data          0x000000000400ed40        0x0 c:/intelfpga_lite/18.1/nios2eds/bin/gnu/h-x86_64-mingw32/bin/../lib/gcc/nios2-elf/5.3.0/../../../../../H-x86_64-mingw32/nios2-elf/lib/mno-hw-mul\libc.a(lib_a-writer.o)
 .data          0x000000000400ed40        0x0 c:/intelfpga_lite/18.1/nios2eds/bin/gnu/h-x86_64-mingw32/bin/../lib/gcc/nios2-elf/5.3.0/../../../../../H-x86_64-mingw32/nios2-elf/lib/mno-hw-mul\libc.a(lib_a-wsetup.o)
 .data          0x000000000400ed40        0x0 c:/intelfpga_lite/18.1/nios2eds/bin/gnu/h-x86_64-mingw32/bin/../lib/gcc/nios2-elf/5.3.0/../../../../../H-x86_64-mingw32/nios2-elf/lib/mno-hw-mul\libc.a(closer.o)
 .data          0x000000000400ed40        0x0 c:/intelfpga_lite/18.1/nios2eds/bin/gnu/h-x86_64-mingw32/bin/../lib/gcc/nios2-elf/5.3.0/../../../../../H-x86_64-mingw32/nios2-elf/lib/mno-hw-mul\libc.a(lib_a-fclose.o)
 .data          0x000000000400ed40        0x0 c:/intelfpga_lite/18.1/nios2eds/bin/gnu/h-x86_64-mingw32/bin/../lib/gcc/nios2-elf/5.3.0/../../../../../H-x86_64-mingw32/nios2-elf/lib/mno-hw-mul\libc.a(lib_a-fflush.o)
 .data          0x000000000400ed40        0x0 c:/intelfpga_lite/18.1/nios2eds/bin/gnu/h-x86_64-mingw32/bin/../lib/gcc/nios2-elf/5.3.0/../../../../../H-x86_64-mingw32/nios2-elf/lib/mno-hw-mul\libc.a(lib_a-freer.o)
 .data          0x000000000400ed40        0x0 c:/intelfpga_lite/18.1/nios2eds/bin/gnu/h-x86_64-mingw32/bin/../lib/gcc/nios2-elf/5.3.0/../../../../../H-x86_64-mingw32/nios2-elf/lib/mno-hw-mul\libc.a(lib_a-int_errno.o)
 .data          0x000000000400ed40        0x0 c:/intelfpga_lite/18.1/nios2eds/bin/gnu/h-x86_64-mingw32/bin/../lib/gcc/nios2-elf/5.3.0/../../../../../H-x86_64-mingw32/nios2-elf/lib/mno-hw-mul\libc.a(lib_a-lseekr.o)
 .data          0x000000000400ed40        0x0 c:/intelfpga_lite/18.1/nios2eds/bin/gnu/h-x86_64-mingw32/bin/../lib/gcc/nios2-elf/5.3.0/../../../../../H-x86_64-mingw32/nios2-elf/lib/mno-hw-mul\libc.a(lib_a-makebuf.o)
 .data          0x000000000400ed40        0x0 c:/intelfpga_lite/18.1/nios2eds/bin/gnu/h-x86_64-mingw32/bin/../lib/gcc/nios2-elf/5.3.0/../../../../../H-x86_64-mingw32/nios2-elf/lib/mno-hw-mul\libc.a(lib_a-readr.o)
 .data          0x000000000400ed40        0x0 c:/intelfpga_lite/18.1/nios2eds/bin/gnu/h-x86_64-mingw32/bin/../lib/gcc/nios2-elf/5.3.0/../../../../../H-x86_64-mingw32/nios2-elf/lib/mno-hw-mul\libc.a(lib_a-fstatr.o)
 .data          0x000000000400ed40        0x0 c:/intelfpga_lite/18.1/nios2eds/bin/gnu/h-x86_64-mingw32/bin/../lib/gcc/nios2-elf/5.3.0/../../../../../H-x86_64-mingw32/nios2-elf/lib/mno-hw-mul\libc.a(lib_a-isattyr.o)
 .data          0x000000000400ed40        0x0 c:/intelfpga_lite/18.1/nios2eds/bin/gnu/h-x86_64-mingw32/bin/../lib/gcc/nios2-elf/5.3.0/mno-hw-mul\libgcc.a(lib2-divmod.o)
 .data          0x000000000400ed40        0x0 c:/intelfpga_lite/18.1/nios2eds/bin/gnu/h-x86_64-mingw32/bin/../lib/gcc/nios2-elf/5.3.0/mno-hw-mul\libgcc.a(lib2-mul.o)
 .data          0x000000000400ed40        0x0 H:/Real_Time/TP_bsp/\libucosii_bsp.a(alt_close.o)
 .data          0x000000000400ed40      0x1a8 H:/Real_Time/TP_bsp/\libucosii_bsp.a(alt_dev.o)
                0x000000000400ed40                alt_dev_null
                0x000000000400ed68                alt_fd_list
 .data          0x000000000400eee8        0x0 H:/Real_Time/TP_bsp/\libucosii_bsp.a(alt_errno.o)
 .data          0x000000000400eee8        0x0 H:/Real_Time/TP_bsp/\libucosii_bsp.a(alt_fstat.o)
 .data          0x000000000400eee8        0x0 H:/Real_Time/TP_bsp/\libucosii_bsp.a(alt_isatty.o)
 .data          0x000000000400eee8        0x0 H:/Real_Time/TP_bsp/\libucosii_bsp.a(alt_load.o)
 .data          0x000000000400eee8        0x0 H:/Real_Time/TP_bsp/\libucosii_bsp.a(alt_lseek.o)
 .data          0x000000000400eee8        0x0 H:/Real_Time/TP_bsp/\libucosii_bsp.a(alt_main.o)
 .data          0x000000000400eee8        0x0 H:/Real_Time/TP_bsp/\libucosii_bsp.a(alt_read.o)
 .data          0x000000000400eee8        0x0 H:/Real_Time/TP_bsp/\libucosii_bsp.a(alt_release_fd.o)
 .data          0x000000000400eee8        0x0 H:/Real_Time/TP_bsp/\libucosii_bsp.a(alt_sbrk.o)
 .data          0x000000000400eee8        0x0 H:/Real_Time/TP_bsp/\libucosii_bsp.a(alt_write.o)
 .data          0x000000000400eee8        0x0 H:/Real_Time/TP_bsp/\libucosii_bsp.a(alt_env_lock.o)
 .data          0x000000000400eee8        0x0 H:/Real_Time/TP_bsp/\libucosii_bsp.a(alt_malloc_lock.o)
 .data          0x000000000400eee8        0x0 H:/Real_Time/TP_bsp/\libucosii_bsp.a(os_core.o)
 .data          0x000000000400eee8        0x0 H:/Real_Time/TP_bsp/\libucosii_bsp.a(os_dbg.o)
 .data          0x000000000400eee8        0x0 H:/Real_Time/TP_bsp/\libucosii_bsp.a(os_flag.o)
 .data          0x000000000400eee8        0x0 H:/Real_Time/TP_bsp/\libucosii_bsp.a(os_mem.o)
 .data          0x000000000400eee8        0x0 H:/Real_Time/TP_bsp/\libucosii_bsp.a(os_q.o)
 .data          0x000000000400eee8        0x0 H:/Real_Time/TP_bsp/\libucosii_bsp.a(os_sem.o)
 .data          0x000000000400eee8        0x0 H:/Real_Time/TP_bsp/\libucosii_bsp.a(os_task.o)
 .data          0x000000000400eee8        0x0 H:/Real_Time/TP_bsp/\libucosii_bsp.a(os_time.o)
 .data          0x000000000400eee8     0x10a8 H:/Real_Time/TP_bsp/\libucosii_bsp.a(alt_sys_init.o)
 .data          0x000000000400ff90        0x0 H:/Real_Time/TP_bsp/\libucosii_bsp.a(altera_avalon_jtag_uart_fd.o)
 .data          0x000000000400ff90        0x0 H:/Real_Time/TP_bsp/\libucosii_bsp.a(altera_avalon_jtag_uart_init.o)
 .data          0x000000000400ff90        0x0 H:/Real_Time/TP_bsp/\libucosii_bsp.a(altera_avalon_jtag_uart_ioctl.o)
 .data          0x000000000400ff90        0x0 H:/Real_Time/TP_bsp/\libucosii_bsp.a(altera_avalon_jtag_uart_read.o)
 .data          0x000000000400ff90        0x0 H:/Real_Time/TP_bsp/\libucosii_bsp.a(altera_avalon_jtag_uart_write.o)
 .data          0x000000000400ff90        0x0 H:/Real_Time/TP_bsp/\libucosii_bsp.a(altera_avalon_timer_sc.o)
 .data          0x000000000400ff90        0x0 H:/Real_Time/TP_bsp/\libucosii_bsp.a(altera_modular_adc.o)
 .data          0x000000000400ff90        0x0 H:/Real_Time/TP_bsp/\libucosii_bsp.a(alt_alarm_start.o)
 .data          0x000000000400ff90        0x0 H:/Real_Time/TP_bsp/\libucosii_bsp.a(alt_dcache_flush_all.o)
 .data          0x000000000400ff90        0x0 H:/Real_Time/TP_bsp/\libucosii_bsp.a(alt_dev_llist_insert.o)
 .data          0x000000000400ff90        0x0 H:/Real_Time/TP_bsp/\libucosii_bsp.a(alt_do_ctors.o)
 .data          0x000000000400ff90        0x0 H:/Real_Time/TP_bsp/\libucosii_bsp.a(alt_do_dtors.o)
 .data          0x000000000400ff90        0x0 H:/Real_Time/TP_bsp/\libucosii_bsp.a(alt_find_dev.o)
 .data          0x000000000400ff90        0x0 H:/Real_Time/TP_bsp/\libucosii_bsp.a(alt_icache_flush_all.o)
 .data          0x000000000400ff90        0x0 H:/Real_Time/TP_bsp/\libucosii_bsp.a(alt_iic.o)
 .data          0x000000000400ff90        0x0 H:/Real_Time/TP_bsp/\libucosii_bsp.a(alt_iic_isr_register.o)
 .data          0x000000000400ff90        0x0 H:/Real_Time/TP_bsp/\libucosii_bsp.a(alt_io_redirect.o)
 .data          0x000000000400ff90        0x0 H:/Real_Time/TP_bsp/\libucosii_bsp.a(alt_irq_entry.o)
 .data          0x000000000400ff90        0x0 H:/Real_Time/TP_bsp/\libucosii_bsp.a(alt_irq_handler.o)
 .data          0x000000000400ff90        0x0 H:/Real_Time/TP_bsp/\libucosii_bsp.a(alt_irq_vars.o)
 .data          0x000000000400ff90        0x0 H:/Real_Time/TP_bsp/\libucosii_bsp.a(alt_open.o)
 .data          0x000000000400ff90        0x0 H:/Real_Time/TP_bsp/\libucosii_bsp.a(alt_tick.o)
 .data          0x000000000400ff90        0x0 H:/Real_Time/TP_bsp/\libucosii_bsp.a(altera_nios2_gen2_irq.o)
 .data          0x000000000400ff90        0x0 H:/Real_Time/TP_bsp/\libucosii_bsp.a(os_cpu_a.o)
 .data          0x000000000400ff90        0x0 H:/Real_Time/TP_bsp/\libucosii_bsp.a(os_cpu_c.o)
 .data          0x000000000400ff90        0x0 H:/Real_Time/TP_bsp/\libucosii_bsp.a(alt_exception_entry.o)
 .data          0x000000000400ff90        0x0 H:/Real_Time/TP_bsp/\libucosii_bsp.a(alt_find_file.o)
 .data          0x000000000400ff90        0x0 H:/Real_Time/TP_bsp/\libucosii_bsp.a(alt_get_fd.o)
 .data          0x000000000400ff90        0x0 H:/Real_Time/TP_bsp/\libucosii_bsp.a(alt_instruction_exception_entry.o)
 .data          0x000000000400ff90        0x0 c:/intelfpga_lite/18.1/nios2eds/bin/gnu/h-x86_64-mingw32/bin/../lib/gcc/nios2-elf/5.3.0/../../../../../H-x86_64-mingw32/nios2-elf/lib/mno-hw-mul\libc.a(lib_a-atexit.o)
 .data          0x000000000400ff90        0x0 c:/intelfpga_lite/18.1/nios2eds/bin/gnu/h-x86_64-mingw32/bin/../lib/gcc/nios2-elf/5.3.0/../../../../../H-x86_64-mingw32/nios2-elf/lib/mno-hw-mul\libc.a(lib_a-exit.o)
 .data          0x000000000400ff90        0x0 c:/intelfpga_lite/18.1/nios2eds/bin/gnu/h-x86_64-mingw32/bin/../lib/gcc/nios2-elf/5.3.0/../../../../../H-x86_64-mingw32/nios2-elf/lib/mno-hw-mul\libc.a(lib_a-memcmp.o)
 .data          0x000000000400ff90        0x0 c:/intelfpga_lite/18.1/nios2eds/bin/gnu/h-x86_64-mingw32/bin/../lib/gcc/nios2-elf/5.3.0/../../../../../H-x86_64-mingw32/nios2-elf/lib/mno-hw-mul\libc.a(lib_a-__atexit.o)
 .data          0x000000000400ff90        0x0 c:/intelfpga_lite/18.1/nios2eds/bin/gnu/h-x86_64-mingw32/bin/../lib/gcc/nios2-elf/5.3.0/../../../../../H-x86_64-mingw32/nios2-elf/lib/mno-hw-mul\libc.a(lib_a-__call_atexit.o)
 .data          0x000000000400ff90        0x0 H:/Real_Time/TP_bsp/\libucosii_bsp.a(alt_exit.o)
                0x0000000004017f90                _gp = ABSOLUTE ((. + 0x8000))
                [!provide]                        PROVIDE (gp, _gp)
 *(.rwdata .rwdata.*)
 *(.sdata .sdata.* .gnu.linkonce.s.*)
 .sdata._global_impure_ptr
                0x000000000400ff90        0x4 c:/intelfpga_lite/18.1/nios2eds/bin/gnu/h-x86_64-mingw32/bin/../lib/gcc/nios2-elf/5.3.0/../../../../../H-x86_64-mingw32/nios2-elf/lib/mno-hw-mul\libc.a(lib_a-impure.o)
                0x000000000400ff90                _global_impure_ptr
 .sdata._impure_ptr
                0x000000000400ff94        0x4 c:/intelfpga_lite/18.1/nios2eds/bin/gnu/h-x86_64-mingw32/bin/../lib/gcc/nios2-elf/5.3.0/../../../../../H-x86_64-mingw32/nios2-elf/lib/mno-hw-mul\libc.a(lib_a-impure.o)
                0x000000000400ff94                _impure_ptr
 .sdata.__malloc_sbrk_base
                0x000000000400ff98        0x4 c:/intelfpga_lite/18.1/nios2eds/bin/gnu/h-x86_64-mingw32/bin/../lib/gcc/nios2-elf/5.3.0/../../../../../H-x86_64-mingw32/nios2-elf/lib/mno-hw-mul\libc.a(lib_a-mallocr.o)
                0x000000000400ff98                __malloc_sbrk_base
 .sdata.__malloc_trim_threshold
                0x000000000400ff9c        0x4 c:/intelfpga_lite/18.1/nios2eds/bin/gnu/h-x86_64-mingw32/bin/../lib/gcc/nios2-elf/5.3.0/../../../../../H-x86_64-mingw32/nios2-elf/lib/mno-hw-mul\libc.a(lib_a-mallocr.o)
                0x000000000400ff9c                __malloc_trim_threshold
 .sdata         0x000000000400ffa0       0x14 H:/Real_Time/TP_bsp/\libucosii_bsp.a(alt_dev.o)
                0x000000000400ffa0                alt_fs_list
                0x000000000400ffa8                alt_dev_list
                0x000000000400ffb0                alt_max_fd
 .sdata         0x000000000400ffb4        0x4 H:/Real_Time/TP_bsp/\libucosii_bsp.a(alt_errno.o)
                0x000000000400ffb4                alt_errno
 .sdata         0x000000000400ffb8        0x4 H:/Real_Time/TP_bsp/\libucosii_bsp.a(alt_sbrk.o)
 .sdata         0x000000000400ffbc        0x4 H:/Real_Time/TP_bsp/\libucosii_bsp.a(alt_env_lock.o)
 .sdata         0x000000000400ffc0        0x4 H:/Real_Time/TP_bsp/\libucosii_bsp.a(alt_malloc_lock.o)
 .sdata         0x000000000400ffc4       0x72 H:/Real_Time/TP_bsp/\libucosii_bsp.a(os_dbg.o)
                0x000000000400ffc4                OSDebugEn
                0x000000000400ffc8                OSEndiannessTest
                0x000000000400ffcc                OSEventEn
                0x000000000400ffce                OSEventMax
                0x000000000400ffd0                OSEventNameSize
                0x000000000400ffd2                OSEventSize
                0x000000000400ffd4                OSEventTblSize
                0x000000000400ffd6                OSEventMultiEn
                0x000000000400ffd8                OSFlagEn
                0x000000000400ffda                OSFlagGrpSize
                0x000000000400ffdc                OSFlagNodeSize
                0x000000000400ffde                OSFlagWidth
                0x000000000400ffe0                OSFlagMax
                0x000000000400ffe2                OSFlagNameSize
                0x000000000400ffe4                OSLowestPrio
                0x000000000400ffe6                OSMboxEn
                0x000000000400ffe8                OSMemEn
                0x000000000400ffea                OSMemMax
                0x000000000400ffec                OSMemNameSize
                0x000000000400ffee                OSMemSize
                0x000000000400fff0                OSMemTblSize
                0x000000000400fff2                OSMutexEn
                0x000000000400fff4                OSPtrSize
                0x000000000400fff6                OSQEn
                0x000000000400fff8                OSQMax
                0x000000000400fffa                OSQSize
                0x000000000400fffc                OSRdyTblSize
                0x000000000400fffe                OSSemEn
                0x0000000004010000                OSStkWidth
                0x0000000004010002                OSTaskCreateEn
                0x0000000004010004                OSTaskCreateExtEn
                0x0000000004010006                OSTaskDelEn
                0x0000000004010008                OSTaskIdleStkSize
                0x000000000401000a                OSTaskProfileEn
                0x000000000401000c                OSTaskMax
                0x000000000401000e                OSTaskNameSize
                0x0000000004010010                OSTaskStatEn
                0x0000000004010012                OSTaskStatStkSize
                0x0000000004010014                OSTaskStatStkChkEn
                0x0000000004010016                OSTaskSwHookEn
                0x0000000004010018                OSTCBPrioTblMax
                0x000000000401001a                OSTCBSize
                0x000000000401001c                OSTicksPerSec
                0x000000000401001e                OSTimeTickHookEn
                0x0000000004010020                OSVersionNbr
                0x0000000004010022                OSTmrEn
                0x0000000004010024                OSTmrCfgMax
                0x0000000004010026                OSTmrCfgNameSize
                0x0000000004010028                OSTmrCfgWheelSize
                0x000000000401002a                OSTmrCfgTicksPerSec
                0x000000000401002c                OSTmrSize
                0x000000000401002e                OSTmrTblSize
                0x0000000004010030                OSTmrWheelSize
                0x0000000004010032                OSTmrWheelTblSize
                0x0000000004010034                OSDataSize
 *fill*         0x0000000004010036        0x2 
 .sdata         0x0000000004010038        0x8 H:/Real_Time/TP_bsp/\libucosii_bsp.a(altera_modular_adc.o)
                0x0000000004010038                altera_modular_adc_list
 .sdata         0x0000000004010040        0x4 H:/Real_Time/TP_bsp/\libucosii_bsp.a(alt_irq_vars.o)
                0x0000000004010040                alt_priority_mask
 .sdata         0x0000000004010044        0x8 H:/Real_Time/TP_bsp/\libucosii_bsp.a(alt_tick.o)
                0x0000000004010044                alt_alarm_list
 *(.sdata2 .sdata2.* .gnu.linkonce.s2.*)
                0x000000000401004c                . = ALIGN (0x4)
                0x000000000401004c                _edata = ABSOLUTE (.)
                [!provide]                        PROVIDE (edata, ABSOLUTE (.))
                0x000000000401004c                PROVIDE (__ram_rwdata_end, ABSOLUTE (.))
                0x000000000401004c                PROVIDE (__flash_rwdata_start, LOADADDR (.rwdata))

.bss            0x0000000004011b84     0x73dc
                0x0000000004011b84                __bss_start = ABSOLUTE (.)
                [!provide]                        PROVIDE (__sbss_start, ABSOLUTE (.))
                [!provide]                        PROVIDE (___sbss_start, ABSOLUTE (.))
 *(.dynsbss)
 *(.sbss .sbss.* .gnu.linkonce.sb.*)
 .sbss.__malloc_max_total_mem
                0x0000000004011b84        0x4 c:/intelfpga_lite/18.1/nios2eds/bin/gnu/h-x86_64-mingw32/bin/../lib/gcc/nios2-elf/5.3.0/../../../../../H-x86_64-mingw32/nios2-elf/lib/mno-hw-mul\libc.a(lib_a-mallocr.o)
                0x0000000004011b84                __malloc_max_total_mem
 .sbss.__malloc_max_sbrked_mem
                0x0000000004011b88        0x4 c:/intelfpga_lite/18.1/nios2eds/bin/gnu/h-x86_64-mingw32/bin/../lib/gcc/nios2-elf/5.3.0/../../../../../H-x86_64-mingw32/nios2-elf/lib/mno-hw-mul\libc.a(lib_a-mallocr.o)
                0x0000000004011b88                __malloc_max_sbrked_mem
 .sbss.__malloc_top_pad
                0x0000000004011b8c        0x4 c:/intelfpga_lite/18.1/nios2eds/bin/gnu/h-x86_64-mingw32/bin/../lib/gcc/nios2-elf/5.3.0/../../../../../H-x86_64-mingw32/nios2-elf/lib/mno-hw-mul\libc.a(lib_a-mallocr.o)
                0x0000000004011b8c                __malloc_top_pad
 .sbss          0x0000000004011b90        0x4 c:/intelfpga_lite/18.1/nios2eds/bin/gnu/h-x86_64-mingw32/bin/../lib/gcc/nios2-elf/5.3.0/../../../../../H-x86_64-mingw32/nios2-elf/lib/mno-hw-mul\libc.a(lib_a-int_errno.o)
                0x0000000004011b90                errno
 .sbss          0x0000000004011b94        0x4 H:/Real_Time/TP_bsp/\libucosii_bsp.a(alt_dev.o)
                0x0000000004011b94                alt_fd_list_lock
 .sbss          0x0000000004011b98        0xc H:/Real_Time/TP_bsp/\libucosii_bsp.a(alt_main.o)
                0x0000000004011b98                alt_argc
                0x0000000004011b9c                alt_argv
                0x0000000004011ba0                alt_envp
 .sbss          0x0000000004011ba4        0x8 H:/Real_Time/TP_bsp/\libucosii_bsp.a(alt_env_lock.o)
                0x0000000004011ba8                alt_envsem
 .sbss          0x0000000004011bac        0x8 H:/Real_Time/TP_bsp/\libucosii_bsp.a(alt_malloc_lock.o)
                0x0000000004011bb0                alt_heapsem
 .sbss          0x0000000004011bb4       0x50 H:/Real_Time/TP_bsp/\libucosii_bsp.a(os_core.o)
                0x0000000004011bb4                OSLockNesting
                0x0000000004011bb5                OSRunning
                0x0000000004011bb8                OSIdleCtr
                0x0000000004011bbc                OSPrioHighRdy
                0x0000000004011bbd                OSPrioCur
                0x0000000004011bc0                OSTCBList
                0x0000000004011bc4                OSTickStepState
                0x0000000004011bc8                OSCtxSwCtr
                0x0000000004011bcc                OSIdleCtrMax
                0x0000000004011bd0                OSTCBFreeList
                0x0000000004011bd4                OSCPUUsage
                0x0000000004011bd5                OSTaskCtr
                0x0000000004011bd8                OSMemFreeList
                0x0000000004011bdc                OSTCBHighRdy
                0x0000000004011be0                OSQFreeList
                0x0000000004011be4                OSRdyGrp
                0x0000000004011be5                OSRdyTbl
                0x0000000004011be8                OSEventFreeList
                0x0000000004011bec                OSIntNesting
                0x0000000004011bf0                OSTCBCur
                0x0000000004011bf4                OSTime
                0x0000000004011bf8                OSFlagFreeList
                0x0000000004011bfc                OSStatRdy
                0x0000000004011c00                OSIdleCtrRun
 .sbss          0x0000000004011c04        0x4 H:/Real_Time/TP_bsp/\libucosii_bsp.a(alt_irq_vars.o)
                0x0000000004011c04                alt_irq_active
 .sbss          0x0000000004011c08        0x8 H:/Real_Time/TP_bsp/\libucosii_bsp.a(alt_tick.o)
                0x0000000004011c08                _alt_tick_rate
                0x0000000004011c0c                _alt_nticks
 .sbss          0x0000000004011c10        0x4 H:/Real_Time/TP_bsp/\libucosii_bsp.a(alt_instruction_exception_entry.o)
                0x0000000004011c10                alt_instruction_exception_handler
 *(.sbss2 .sbss2.* .gnu.linkonce.sb2.*)
 *(.scommon)
                [!provide]                        PROVIDE (__sbss_end, ABSOLUTE (.))
                [!provide]                        PROVIDE (___sbss_end, ABSOLUTE (.))
 *(.dynbss)
 *(.bss .bss.* .gnu.linkonce.b.*)
 .bss           0x0000000004011c14        0x0 H:/Real_Time/TP_bsp//obj/HAL/src/crt0.o
 .bss           0x0000000004011c14        0x0 obj/default/hello_ucosii.o
 .bss           0x0000000004011c14        0x0 c:/intelfpga_lite/18.1/nios2eds/bin/gnu/h-x86_64-mingw32/bin/../lib/gcc/nios2-elf/5.3.0/../../../../../H-x86_64-mingw32/nios2-elf/lib/mno-hw-mul\libc.a(lib_a-puts.o)
 .bss           0x0000000004011c14        0x0 c:/intelfpga_lite/18.1/nios2eds/bin/gnu/h-x86_64-mingw32/bin/../lib/gcc/nios2-elf/5.3.0/../../../../../H-x86_64-mingw32/nios2-elf/lib/mno-hw-mul\libc.a(lib_a-strlen.o)
 .bss           0x0000000004011c14        0x0 c:/intelfpga_lite/18.1/nios2eds/bin/gnu/h-x86_64-mingw32/bin/../lib/gcc/nios2-elf/5.3.0/../../../../../H-x86_64-mingw32/nios2-elf/lib/mno-hw-mul\libc.a(lib_a-findfp.o)
 .bss           0x0000000004011c14        0x0 c:/intelfpga_lite/18.1/nios2eds/bin/gnu/h-x86_64-mingw32/bin/../lib/gcc/nios2-elf/5.3.0/../../../../../H-x86_64-mingw32/nios2-elf/lib/mno-hw-mul\libc.a(lib_a-fvwrite.o)
 .bss           0x0000000004011c14        0x0 c:/intelfpga_lite/18.1/nios2eds/bin/gnu/h-x86_64-mingw32/bin/../lib/gcc/nios2-elf/5.3.0/../../../../../H-x86_64-mingw32/nios2-elf/lib/mno-hw-mul\libc.a(lib_a-fwalk.o)
 .bss           0x0000000004011c14        0x0 c:/intelfpga_lite/18.1/nios2eds/bin/gnu/h-x86_64-mingw32/bin/../lib/gcc/nios2-elf/5.3.0/../../../../../H-x86_64-mingw32/nios2-elf/lib/mno-hw-mul\libc.a(lib_a-impure.o)
 .bss           0x0000000004011c14        0x0 c:/intelfpga_lite/18.1/nios2eds/bin/gnu/h-x86_64-mingw32/bin/../lib/gcc/nios2-elf/5.3.0/../../../../../H-x86_64-mingw32/nios2-elf/lib/mno-hw-mul\libc.a(lib_a-mallocr.o)
 .bss.__malloc_current_mallinfo
                0x0000000004011c14       0x28 c:/intelfpga_lite/18.1/nios2eds/bin/gnu/h-x86_64-mingw32/bin/../lib/gcc/nios2-elf/5.3.0/../../../../../H-x86_64-mingw32/nios2-elf/lib/mno-hw-mul\libc.a(lib_a-mallocr.o)
                0x0000000004011c14                __malloc_current_mallinfo
 .bss           0x0000000004011c3c        0x0 c:/intelfpga_lite/18.1/nios2eds/bin/gnu/h-x86_64-mingw32/bin/../lib/gcc/nios2-elf/5.3.0/../../../../../H-x86_64-mingw32/nios2-elf/lib/mno-hw-mul\libc.a(lib_a-memchr.o)
 .bss           0x0000000004011c3c        0x0 c:/intelfpga_lite/18.1/nios2eds/bin/gnu/h-x86_64-mingw32/bin/../lib/gcc/nios2-elf/5.3.0/../../../../../H-x86_64-mingw32/nios2-elf/lib/mno-hw-mul\libc.a(lib_a-memcpy.o)
 .bss           0x0000000004011c3c        0x0 c:/intelfpga_lite/18.1/nios2eds/bin/gnu/h-x86_64-mingw32/bin/../lib/gcc/nios2-elf/5.3.0/../../../../../H-x86_64-mingw32/nios2-elf/lib/mno-hw-mul\libc.a(lib_a-memmove.o)
 .bss           0x0000000004011c3c        0x0 c:/intelfpga_lite/18.1/nios2eds/bin/gnu/h-x86_64-mingw32/bin/../lib/gcc/nios2-elf/5.3.0/../../../../../H-x86_64-mingw32/nios2-elf/lib/mno-hw-mul\libc.a(lib_a-memset.o)
 .bss           0x0000000004011c3c        0x0 c:/intelfpga_lite/18.1/nios2eds/bin/gnu/h-x86_64-mingw32/bin/../lib/gcc/nios2-elf/5.3.0/../../../../../H-x86_64-mingw32/nios2-elf/lib/mno-hw-mul\libc.a(lib_a-reallocr.o)
 .bss           0x0000000004011c3c        0x0 c:/intelfpga_lite/18.1/nios2eds/bin/gnu/h-x86_64-mingw32/bin/../lib/gcc/nios2-elf/5.3.0/../../../../../H-x86_64-mingw32/nios2-elf/lib/mno-hw-mul\libc.a(lib_a-sbrkr.o)
 .bss           0x0000000004011c3c        0x0 c:/intelfpga_lite/18.1/nios2eds/bin/gnu/h-x86_64-mingw32/bin/../lib/gcc/nios2-elf/5.3.0/../../../../../H-x86_64-mingw32/nios2-elf/lib/mno-hw-mul\libc.a(lib_a-stdio.o)
 .bss           0x0000000004011c3c        0x0 c:/intelfpga_lite/18.1/nios2eds/bin/gnu/h-x86_64-mingw32/bin/../lib/gcc/nios2-elf/5.3.0/../../../../../H-x86_64-mingw32/nios2-elf/lib/mno-hw-mul\libc.a(lib_a-writer.o)
 .bss           0x0000000004011c3c        0x0 c:/intelfpga_lite/18.1/nios2eds/bin/gnu/h-x86_64-mingw32/bin/../lib/gcc/nios2-elf/5.3.0/../../../../../H-x86_64-mingw32/nios2-elf/lib/mno-hw-mul\libc.a(lib_a-wsetup.o)
 .bss           0x0000000004011c3c        0x0 c:/intelfpga_lite/18.1/nios2eds/bin/gnu/h-x86_64-mingw32/bin/../lib/gcc/nios2-elf/5.3.0/../../../../../H-x86_64-mingw32/nios2-elf/lib/mno-hw-mul\libc.a(closer.o)
 .bss           0x0000000004011c3c        0x0 c:/intelfpga_lite/18.1/nios2eds/bin/gnu/h-x86_64-mingw32/bin/../lib/gcc/nios2-elf/5.3.0/../../../../../H-x86_64-mingw32/nios2-elf/lib/mno-hw-mul\libc.a(lib_a-fclose.o)
 .bss           0x0000000004011c3c        0x0 c:/intelfpga_lite/18.1/nios2eds/bin/gnu/h-x86_64-mingw32/bin/../lib/gcc/nios2-elf/5.3.0/../../../../../H-x86_64-mingw32/nios2-elf/lib/mno-hw-mul\libc.a(lib_a-fflush.o)
 .bss           0x0000000004011c3c        0x0 c:/intelfpga_lite/18.1/nios2eds/bin/gnu/h-x86_64-mingw32/bin/../lib/gcc/nios2-elf/5.3.0/../../../../../H-x86_64-mingw32/nios2-elf/lib/mno-hw-mul\libc.a(lib_a-freer.o)
 .bss           0x0000000004011c3c        0x0 c:/intelfpga_lite/18.1/nios2eds/bin/gnu/h-x86_64-mingw32/bin/../lib/gcc/nios2-elf/5.3.0/../../../../../H-x86_64-mingw32/nios2-elf/lib/mno-hw-mul\libc.a(lib_a-int_errno.o)
 .bss           0x0000000004011c3c        0x0 c:/intelfpga_lite/18.1/nios2eds/bin/gnu/h-x86_64-mingw32/bin/../lib/gcc/nios2-elf/5.3.0/../../../../../H-x86_64-mingw32/nios2-elf/lib/mno-hw-mul\libc.a(lib_a-lseekr.o)
 .bss           0x0000000004011c3c        0x0 c:/intelfpga_lite/18.1/nios2eds/bin/gnu/h-x86_64-mingw32/bin/../lib/gcc/nios2-elf/5.3.0/../../../../../H-x86_64-mingw32/nios2-elf/lib/mno-hw-mul\libc.a(lib_a-makebuf.o)
 .bss           0x0000000004011c3c        0x0 c:/intelfpga_lite/18.1/nios2eds/bin/gnu/h-x86_64-mingw32/bin/../lib/gcc/nios2-elf/5.3.0/../../../../../H-x86_64-mingw32/nios2-elf/lib/mno-hw-mul\libc.a(lib_a-readr.o)
 .bss           0x0000000004011c3c        0x0 c:/intelfpga_lite/18.1/nios2eds/bin/gnu/h-x86_64-mingw32/bin/../lib/gcc/nios2-elf/5.3.0/../../../../../H-x86_64-mingw32/nios2-elf/lib/mno-hw-mul\libc.a(lib_a-fstatr.o)
 .bss           0x0000000004011c3c        0x0 c:/intelfpga_lite/18.1/nios2eds/bin/gnu/h-x86_64-mingw32/bin/../lib/gcc/nios2-elf/5.3.0/../../../../../H-x86_64-mingw32/nios2-elf/lib/mno-hw-mul\libc.a(lib_a-isattyr.o)
 .bss           0x0000000004011c3c        0x0 c:/intelfpga_lite/18.1/nios2eds/bin/gnu/h-x86_64-mingw32/bin/../lib/gcc/nios2-elf/5.3.0/mno-hw-mul\libgcc.a(lib2-divmod.o)
 .bss           0x0000000004011c3c        0x0 c:/intelfpga_lite/18.1/nios2eds/bin/gnu/h-x86_64-mingw32/bin/../lib/gcc/nios2-elf/5.3.0/mno-hw-mul\libgcc.a(lib2-mul.o)
 .bss           0x0000000004011c3c        0x0 H:/Real_Time/TP_bsp/\libucosii_bsp.a(alt_close.o)
 .bss           0x0000000004011c3c        0x0 H:/Real_Time/TP_bsp/\libucosii_bsp.a(alt_dev.o)
 .bss           0x0000000004011c3c        0x0 H:/Real_Time/TP_bsp/\libucosii_bsp.a(alt_errno.o)
 .bss           0x0000000004011c3c        0x0 H:/Real_Time/TP_bsp/\libucosii_bsp.a(alt_fstat.o)
 .bss           0x0000000004011c3c        0x0 H:/Real_Time/TP_bsp/\libucosii_bsp.a(alt_isatty.o)
 .bss           0x0000000004011c3c        0x0 H:/Real_Time/TP_bsp/\libucosii_bsp.a(alt_load.o)
 .bss           0x0000000004011c3c        0x0 H:/Real_Time/TP_bsp/\libucosii_bsp.a(alt_lseek.o)
 .bss           0x0000000004011c3c        0x0 H:/Real_Time/TP_bsp/\libucosii_bsp.a(alt_main.o)
 .bss           0x0000000004011c3c        0x0 H:/Real_Time/TP_bsp/\libucosii_bsp.a(alt_read.o)
 .bss           0x0000000004011c3c        0x0 H:/Real_Time/TP_bsp/\libucosii_bsp.a(alt_release_fd.o)
 .bss           0x0000000004011c3c        0x0 H:/Real_Time/TP_bsp/\libucosii_bsp.a(alt_sbrk.o)
 .bss           0x0000000004011c3c        0x0 H:/Real_Time/TP_bsp/\libucosii_bsp.a(alt_write.o)
 .bss           0x0000000004011c3c        0x0 H:/Real_Time/TP_bsp/\libucosii_bsp.a(alt_env_lock.o)
 .bss           0x0000000004011c3c        0x0 H:/Real_Time/TP_bsp/\libucosii_bsp.a(alt_malloc_lock.o)
 .bss           0x0000000004011c3c        0x0 H:/Real_Time/TP_bsp/\libucosii_bsp.a(os_core.o)
 .bss           0x0000000004011c3c        0x0 H:/Real_Time/TP_bsp/\libucosii_bsp.a(os_dbg.o)
 .bss           0x0000000004011c3c        0x0 H:/Real_Time/TP_bsp/\libucosii_bsp.a(os_flag.o)
 .bss           0x0000000004011c3c        0x0 H:/Real_Time/TP_bsp/\libucosii_bsp.a(os_mem.o)
 .bss           0x0000000004011c3c        0x0 H:/Real_Time/TP_bsp/\libucosii_bsp.a(os_q.o)
 .bss           0x0000000004011c3c        0x0 H:/Real_Time/TP_bsp/\libucosii_bsp.a(os_sem.o)
 .bss           0x0000000004011c3c        0x0 H:/Real_Time/TP_bsp/\libucosii_bsp.a(os_task.o)
 .bss           0x0000000004011c3c        0x0 H:/Real_Time/TP_bsp/\libucosii_bsp.a(os_time.o)
 .bss           0x0000000004011c3c        0x0 H:/Real_Time/TP_bsp/\libucosii_bsp.a(alt_sys_init.o)
 .bss           0x0000000004011c3c        0x0 H:/Real_Time/TP_bsp/\libucosii_bsp.a(altera_avalon_jtag_uart_fd.o)
 .bss           0x0000000004011c3c        0x0 H:/Real_Time/TP_bsp/\libucosii_bsp.a(altera_avalon_jtag_uart_init.o)
 .bss           0x0000000004011c3c        0x0 H:/Real_Time/TP_bsp/\libucosii_bsp.a(altera_avalon_jtag_uart_ioctl.o)
 .bss           0x0000000004011c3c        0x0 H:/Real_Time/TP_bsp/\libucosii_bsp.a(altera_avalon_jtag_uart_read.o)
 .bss           0x0000000004011c3c        0x0 H:/Real_Time/TP_bsp/\libucosii_bsp.a(altera_avalon_jtag_uart_write.o)
 .bss           0x0000000004011c3c        0x0 H:/Real_Time/TP_bsp/\libucosii_bsp.a(altera_avalon_timer_sc.o)
 .bss           0x0000000004011c3c        0x0 H:/Real_Time/TP_bsp/\libucosii_bsp.a(altera_modular_adc.o)
 .bss           0x0000000004011c3c        0x0 H:/Real_Time/TP_bsp/\libucosii_bsp.a(alt_alarm_start.o)
 .bss           0x0000000004011c3c        0x0 H:/Real_Time/TP_bsp/\libucosii_bsp.a(alt_dcache_flush_all.o)
 .bss           0x0000000004011c3c        0x0 H:/Real_Time/TP_bsp/\libucosii_bsp.a(alt_dev_llist_insert.o)
 .bss           0x0000000004011c3c        0x0 H:/Real_Time/TP_bsp/\libucosii_bsp.a(alt_do_ctors.o)
 .bss           0x0000000004011c3c        0x0 H:/Real_Time/TP_bsp/\libucosii_bsp.a(alt_do_dtors.o)
 .bss           0x0000000004011c3c        0x0 H:/Real_Time/TP_bsp/\libucosii_bsp.a(alt_find_dev.o)
 .bss           0x0000000004011c3c        0x0 H:/Real_Time/TP_bsp/\libucosii_bsp.a(alt_icache_flush_all.o)
 .bss           0x0000000004011c3c        0x0 H:/Real_Time/TP_bsp/\libucosii_bsp.a(alt_iic.o)
 .bss           0x0000000004011c3c        0x0 H:/Real_Time/TP_bsp/\libucosii_bsp.a(alt_iic_isr_register.o)
 .bss           0x0000000004011c3c        0x0 H:/Real_Time/TP_bsp/\libucosii_bsp.a(alt_io_redirect.o)
 .bss           0x0000000004011c3c        0x0 H:/Real_Time/TP_bsp/\libucosii_bsp.a(alt_irq_entry.o)
 .bss           0x0000000004011c3c        0x0 H:/Real_Time/TP_bsp/\libucosii_bsp.a(alt_irq_handler.o)
 .bss           0x0000000004011c3c        0x0 H:/Real_Time/TP_bsp/\libucosii_bsp.a(alt_irq_vars.o)
 .bss           0x0000000004011c3c        0x0 H:/Real_Time/TP_bsp/\libucosii_bsp.a(alt_open.o)
 .bss           0x0000000004011c3c        0x0 H:/Real_Time/TP_bsp/\libucosii_bsp.a(alt_tick.o)
 .bss           0x0000000004011c3c        0x0 H:/Real_Time/TP_bsp/\libucosii_bsp.a(altera_nios2_gen2_irq.o)
 .bss           0x0000000004011c3c        0x0 H:/Real_Time/TP_bsp/\libucosii_bsp.a(os_cpu_a.o)
 .bss           0x0000000004011c3c        0x0 H:/Real_Time/TP_bsp/\libucosii_bsp.a(os_cpu_c.o)
 .bss           0x0000000004011c3c        0x0 H:/Real_Time/TP_bsp/\libucosii_bsp.a(alt_exception_entry.o)
 .bss           0x0000000004011c3c        0x0 H:/Real_Time/TP_bsp/\libucosii_bsp.a(alt_find_file.o)
 .bss           0x0000000004011c3c        0x0 H:/Real_Time/TP_bsp/\libucosii_bsp.a(alt_get_fd.o)
 .bss           0x0000000004011c3c        0x0 H:/Real_Time/TP_bsp/\libucosii_bsp.a(alt_instruction_exception_entry.o)
 .bss           0x0000000004011c3c        0x0 c:/intelfpga_lite/18.1/nios2eds/bin/gnu/h-x86_64-mingw32/bin/../lib/gcc/nios2-elf/5.3.0/../../../../../H-x86_64-mingw32/nios2-elf/lib/mno-hw-mul\libc.a(lib_a-atexit.o)
 .bss           0x0000000004011c3c        0x0 c:/intelfpga_lite/18.1/nios2eds/bin/gnu/h-x86_64-mingw32/bin/../lib/gcc/nios2-elf/5.3.0/../../../../../H-x86_64-mingw32/nios2-elf/lib/mno-hw-mul\libc.a(lib_a-exit.o)
 .bss           0x0000000004011c3c        0x0 c:/intelfpga_lite/18.1/nios2eds/bin/gnu/h-x86_64-mingw32/bin/../lib/gcc/nios2-elf/5.3.0/../../../../../H-x86_64-mingw32/nios2-elf/lib/mno-hw-mul\libc.a(lib_a-memcmp.o)
 .bss           0x0000000004011c3c        0x0 c:/intelfpga_lite/18.1/nios2eds/bin/gnu/h-x86_64-mingw32/bin/../lib/gcc/nios2-elf/5.3.0/../../../../../H-x86_64-mingw32/nios2-elf/lib/mno-hw-mul\libc.a(lib_a-__atexit.o)
 .bss           0x0000000004011c3c        0x0 c:/intelfpga_lite/18.1/nios2eds/bin/gnu/h-x86_64-mingw32/bin/../lib/gcc/nios2-elf/5.3.0/../../../../../H-x86_64-mingw32/nios2-elf/lib/mno-hw-mul\libc.a(lib_a-__call_atexit.o)
 .bss           0x0000000004011c3c        0x0 H:/Real_Time/TP_bsp/\libucosii_bsp.a(alt_exit.o)
 *(COMMON)
 COMMON         0x0000000004011c3c     0x4000 obj/default/hello_ucosii.o
                0x0000000004011c3c                task1_stk
                0x0000000004013c3c                task2_stk
 COMMON         0x0000000004015c3c     0x3224 H:/Real_Time/TP_bsp/\libucosii_bsp.a(os_core.o)
                0x0000000004015c3c                OSFlagTbl
                0x0000000004015fac                OSMemTbl
                0x0000000004016bdc                OSTaskStatStk
                0x00000000040173dc                OSQTbl
                0x00000000040175bc                OSTaskIdleStk
                0x0000000004017dbc                OSEventTbl
                0x00000000040188fc                OSTCBTbl
                0x0000000004018e0c                OSTCBPrioTbl
 COMMON         0x0000000004018e60      0x100 H:/Real_Time/TP_bsp/\libucosii_bsp.a(alt_irq_handler.o)
                0x0000000004018e60                alt_irq
                0x0000000004018f60                . = ALIGN (0x4)
                0x0000000004018f60                __bss_end = ABSOLUTE (.)

.sdram          0x0000000004018f60        0x0
                [!provide]                        PROVIDE (_alt_partition_sdram_start, ABSOLUTE (.))
 *(.sdram .sdram. sdram.*)
                0x0000000004018f60                . = ALIGN (0x4)
                [!provide]                        PROVIDE (_alt_partition_sdram_end, ABSOLUTE (.))
                0x0000000004018f60                _end = ABSOLUTE (.)
                0x0000000004018f60                end = ABSOLUTE (.)
                0x0000000004018f60                __alt_stack_base = ABSOLUTE (.)
                [!provide]                        PROVIDE (_alt_partition_sdram_load_addr, LOADADDR (.sdram))

.onchip_memory2_0
                0x0000000008008000        0x0 load address 0x0000000004018f60
                [!provide]                        PROVIDE (_alt_partition_onchip_memory2_0_start, ABSOLUTE (.))
 *(.onchip_memory2_0 .onchip_memory2_0. onchip_memory2_0.*)
                0x0000000008008000                . = ALIGN (0x4)
                [!provide]                        PROVIDE (_alt_partition_onchip_memory2_0_end, ABSOLUTE (.))
                [!provide]                        PROVIDE (_alt_partition_onchip_memory2_0_load_addr, LOADADDR (.onchip_memory2_0))

.stab
 *(.stab)

.stabstr
 *(.stabstr)

.stab.excl
 *(.stab.excl)

.stab.exclstr
 *(.stab.exclstr)

.stab.index
 *(.stab.index)

.stab.indexstr
 *(.stab.indexstr)

.comment        0x0000000000000000       0x23
 *(.comment)
 .comment       0x0000000000000000       0x23 obj/default/hello_ucosii.o
                                         0x24 (size before relaxing)
 .comment       0x0000000000000023       0x24 c:/intelfpga_lite/18.1/nios2eds/bin/gnu/h-x86_64-mingw32/bin/../lib/gcc/nios2-elf/5.3.0/../../../../../H-x86_64-mingw32/nios2-elf/lib/mno-hw-mul\libc.a(lib_a-puts.o)
 .comment       0x0000000000000023       0x24 c:/intelfpga_lite/18.1/nios2eds/bin/gnu/h-x86_64-mingw32/bin/../lib/gcc/nios2-elf/5.3.0/../../../../../H-x86_64-mingw32/nios2-elf/lib/mno-hw-mul\libc.a(lib_a-strlen.o)
 .comment       0x0000000000000023       0x24 c:/intelfpga_lite/18.1/nios2eds/bin/gnu/h-x86_64-mingw32/bin/../lib/gcc/nios2-elf/5.3.0/../../../../../H-x86_64-mingw32/nios2-elf/lib/mno-hw-mul\libc.a(lib_a-findfp.o)
 .comment       0x0000000000000023       0x24 c:/intelfpga_lite/18.1/nios2eds/bin/gnu/h-x86_64-mingw32/bin/../lib/gcc/nios2-elf/5.3.0/../../../../../H-x86_64-mingw32/nios2-elf/lib/mno-hw-mul\libc.a(lib_a-fvwrite.o)
 .comment       0x0000000000000023       0x24 c:/intelfpga_lite/18.1/nios2eds/bin/gnu/h-x86_64-mingw32/bin/../lib/gcc/nios2-elf/5.3.0/../../../../../H-x86_64-mingw32/nios2-elf/lib/mno-hw-mul\libc.a(lib_a-fwalk.o)
 .comment       0x0000000000000023       0x24 c:/intelfpga_lite/18.1/nios2eds/bin/gnu/h-x86_64-mingw32/bin/../lib/gcc/nios2-elf/5.3.0/../../../../../H-x86_64-mingw32/nios2-elf/lib/mno-hw-mul\libc.a(lib_a-impure.o)
 .comment       0x0000000000000023       0x24 c:/intelfpga_lite/18.1/nios2eds/bin/gnu/h-x86_64-mingw32/bin/../lib/gcc/nios2-elf/5.3.0/../../../../../H-x86_64-mingw32/nios2-elf/lib/mno-hw-mul\libc.a(lib_a-mallocr.o)
 .comment       0x0000000000000023       0x24 c:/intelfpga_lite/18.1/nios2eds/bin/gnu/h-x86_64-mingw32/bin/../lib/gcc/nios2-elf/5.3.0/../../../../../H-x86_64-mingw32/nios2-elf/lib/mno-hw-mul\libc.a(lib_a-memchr.o)
 .comment       0x0000000000000023       0x24 c:/intelfpga_lite/18.1/nios2eds/bin/gnu/h-x86_64-mingw32/bin/../lib/gcc/nios2-elf/5.3.0/../../../../../H-x86_64-mingw32/nios2-elf/lib/mno-hw-mul\libc.a(lib_a-memcpy.o)
 .comment       0x0000000000000023       0x24 c:/intelfpga_lite/18.1/nios2eds/bin/gnu/h-x86_64-mingw32/bin/../lib/gcc/nios2-elf/5.3.0/../../../../../H-x86_64-mingw32/nios2-elf/lib/mno-hw-mul\libc.a(lib_a-memmove.o)
 .comment       0x0000000000000023       0x24 c:/intelfpga_lite/18.1/nios2eds/bin/gnu/h-x86_64-mingw32/bin/../lib/gcc/nios2-elf/5.3.0/../../../../../H-x86_64-mingw32/nios2-elf/lib/mno-hw-mul\libc.a(lib_a-memset.o)
 .comment       0x0000000000000023       0x24 c:/intelfpga_lite/18.1/nios2eds/bin/gnu/h-x86_64-mingw32/bin/../lib/gcc/nios2-elf/5.3.0/../../../../../H-x86_64-mingw32/nios2-elf/lib/mno-hw-mul\libc.a(lib_a-reallocr.o)
 .comment       0x0000000000000023       0x24 c:/intelfpga_lite/18.1/nios2eds/bin/gnu/h-x86_64-mingw32/bin/../lib/gcc/nios2-elf/5.3.0/../../../../../H-x86_64-mingw32/nios2-elf/lib/mno-hw-mul\libc.a(lib_a-sbrkr.o)
 .comment       0x0000000000000023       0x24 c:/intelfpga_lite/18.1/nios2eds/bin/gnu/h-x86_64-mingw32/bin/../lib/gcc/nios2-elf/5.3.0/../../../../../H-x86_64-mingw32/nios2-elf/lib/mno-hw-mul\libc.a(lib_a-stdio.o)
 .comment       0x0000000000000023       0x24 c:/intelfpga_lite/18.1/nios2eds/bin/gnu/h-x86_64-mingw32/bin/../lib/gcc/nios2-elf/5.3.0/../../../../../H-x86_64-mingw32/nios2-elf/lib/mno-hw-mul\libc.a(lib_a-writer.o)
 .comment       0x0000000000000023       0x24 c:/intelfpga_lite/18.1/nios2eds/bin/gnu/h-x86_64-mingw32/bin/../lib/gcc/nios2-elf/5.3.0/../../../../../H-x86_64-mingw32/nios2-elf/lib/mno-hw-mul\libc.a(lib_a-wsetup.o)
 .comment       0x0000000000000023       0x24 c:/intelfpga_lite/18.1/nios2eds/bin/gnu/h-x86_64-mingw32/bin/../lib/gcc/nios2-elf/5.3.0/../../../../../H-x86_64-mingw32/nios2-elf/lib/mno-hw-mul\libc.a(closer.o)
 .comment       0x0000000000000023       0x24 c:/intelfpga_lite/18.1/nios2eds/bin/gnu/h-x86_64-mingw32/bin/../lib/gcc/nios2-elf/5.3.0/../../../../../H-x86_64-mingw32/nios2-elf/lib/mno-hw-mul\libc.a(lib_a-fclose.o)
 .comment       0x0000000000000023       0x24 c:/intelfpga_lite/18.1/nios2eds/bin/gnu/h-x86_64-mingw32/bin/../lib/gcc/nios2-elf/5.3.0/../../../../../H-x86_64-mingw32/nios2-elf/lib/mno-hw-mul\libc.a(lib_a-fflush.o)
 .comment       0x0000000000000023       0x24 c:/intelfpga_lite/18.1/nios2eds/bin/gnu/h-x86_64-mingw32/bin/../lib/gcc/nios2-elf/5.3.0/../../../../../H-x86_64-mingw32/nios2-elf/lib/mno-hw-mul\libc.a(lib_a-freer.o)
 .comment       0x0000000000000023       0x24 c:/intelfpga_lite/18.1/nios2eds/bin/gnu/h-x86_64-mingw32/bin/../lib/gcc/nios2-elf/5.3.0/../../../../../H-x86_64-mingw32/nios2-elf/lib/mno-hw-mul\libc.a(lib_a-int_errno.o)
 .comment       0x0000000000000023       0x24 c:/intelfpga_lite/18.1/nios2eds/bin/gnu/h-x86_64-mingw32/bin/../lib/gcc/nios2-elf/5.3.0/../../../../../H-x86_64-mingw32/nios2-elf/lib/mno-hw-mul\libc.a(lib_a-lseekr.o)
 .comment       0x0000000000000023       0x24 c:/intelfpga_lite/18.1/nios2eds/bin/gnu/h-x86_64-mingw32/bin/../lib/gcc/nios2-elf/5.3.0/../../../../../H-x86_64-mingw32/nios2-elf/lib/mno-hw-mul\libc.a(lib_a-makebuf.o)
 .comment       0x0000000000000023       0x24 c:/intelfpga_lite/18.1/nios2eds/bin/gnu/h-x86_64-mingw32/bin/../lib/gcc/nios2-elf/5.3.0/../../../../../H-x86_64-mingw32/nios2-elf/lib/mno-hw-mul\libc.a(lib_a-readr.o)
 .comment       0x0000000000000023       0x24 c:/intelfpga_lite/18.1/nios2eds/bin/gnu/h-x86_64-mingw32/bin/../lib/gcc/nios2-elf/5.3.0/../../../../../H-x86_64-mingw32/nios2-elf/lib/mno-hw-mul\libc.a(lib_a-fstatr.o)
 .comment       0x0000000000000023       0x24 c:/intelfpga_lite/18.1/nios2eds/bin/gnu/h-x86_64-mingw32/bin/../lib/gcc/nios2-elf/5.3.0/../../../../../H-x86_64-mingw32/nios2-elf/lib/mno-hw-mul\libc.a(lib_a-isattyr.o)
 .comment       0x0000000000000023       0x24 c:/intelfpga_lite/18.1/nios2eds/bin/gnu/h-x86_64-mingw32/bin/../lib/gcc/nios2-elf/5.3.0/mno-hw-mul\libgcc.a(lib2-divmod.o)
 .comment       0x0000000000000023       0x24 c:/intelfpga_lite/18.1/nios2eds/bin/gnu/h-x86_64-mingw32/bin/../lib/gcc/nios2-elf/5.3.0/mno-hw-mul\libgcc.a(lib2-mul.o)
 .comment       0x0000000000000023       0x24 H:/Real_Time/TP_bsp/\libucosii_bsp.a(alt_close.o)
 .comment       0x0000000000000023       0x24 H:/Real_Time/TP_bsp/\libucosii_bsp.a(alt_dev.o)
 .comment       0x0000000000000023       0x24 H:/Real_Time/TP_bsp/\libucosii_bsp.a(alt_errno.o)
 .comment       0x0000000000000023       0x24 H:/Real_Time/TP_bsp/\libucosii_bsp.a(alt_fstat.o)
 .comment       0x0000000000000023       0x24 H:/Real_Time/TP_bsp/\libucosii_bsp.a(alt_isatty.o)
 .comment       0x0000000000000023       0x24 H:/Real_Time/TP_bsp/\libucosii_bsp.a(alt_load.o)
 .comment       0x0000000000000023       0x24 H:/Real_Time/TP_bsp/\libucosii_bsp.a(alt_lseek.o)
 .comment       0x0000000000000023       0x24 H:/Real_Time/TP_bsp/\libucosii_bsp.a(alt_main.o)
 .comment       0x0000000000000023       0x24 H:/Real_Time/TP_bsp/\libucosii_bsp.a(alt_read.o)
 .comment       0x0000000000000023       0x24 H:/Real_Time/TP_bsp/\libucosii_bsp.a(alt_release_fd.o)
 .comment       0x0000000000000023       0x24 H:/Real_Time/TP_bsp/\libucosii_bsp.a(alt_sbrk.o)
 .comment       0x0000000000000023       0x24 H:/Real_Time/TP_bsp/\libucosii_bsp.a(alt_write.o)
 .comment       0x0000000000000023       0x24 H:/Real_Time/TP_bsp/\libucosii_bsp.a(alt_env_lock.o)
 .comment       0x0000000000000023       0x24 H:/Real_Time/TP_bsp/\libucosii_bsp.a(alt_malloc_lock.o)
 .comment       0x0000000000000023       0x24 H:/Real_Time/TP_bsp/\libucosii_bsp.a(os_core.o)
 .comment       0x0000000000000023       0x24 H:/Real_Time/TP_bsp/\libucosii_bsp.a(os_dbg.o)
 .comment       0x0000000000000023       0x24 H:/Real_Time/TP_bsp/\libucosii_bsp.a(os_flag.o)
 .comment       0x0000000000000023       0x24 H:/Real_Time/TP_bsp/\libucosii_bsp.a(os_mem.o)
 .comment       0x0000000000000023       0x24 H:/Real_Time/TP_bsp/\libucosii_bsp.a(os_q.o)
 .comment       0x0000000000000023       0x24 H:/Real_Time/TP_bsp/\libucosii_bsp.a(os_sem.o)
 .comment       0x0000000000000023       0x24 H:/Real_Time/TP_bsp/\libucosii_bsp.a(os_task.o)
 .comment       0x0000000000000023       0x24 H:/Real_Time/TP_bsp/\libucosii_bsp.a(os_time.o)
 .comment       0x0000000000000023       0x24 H:/Real_Time/TP_bsp/\libucosii_bsp.a(alt_sys_init.o)
 .comment       0x0000000000000023       0x24 H:/Real_Time/TP_bsp/\libucosii_bsp.a(altera_avalon_jtag_uart_fd.o)
 .comment       0x0000000000000023       0x24 H:/Real_Time/TP_bsp/\libucosii_bsp.a(altera_avalon_jtag_uart_init.o)
 .comment       0x0000000000000023       0x24 H:/Real_Time/TP_bsp/\libucosii_bsp.a(altera_avalon_jtag_uart_ioctl.o)
 .comment       0x0000000000000023       0x24 H:/Real_Time/TP_bsp/\libucosii_bsp.a(altera_avalon_jtag_uart_read.o)
 .comment       0x0000000000000023       0x24 H:/Real_Time/TP_bsp/\libucosii_bsp.a(altera_avalon_jtag_uart_write.o)
 .comment       0x0000000000000023       0x24 H:/Real_Time/TP_bsp/\libucosii_bsp.a(altera_avalon_timer_sc.o)
 .comment       0x0000000000000023       0x24 H:/Real_Time/TP_bsp/\libucosii_bsp.a(altera_modular_adc.o)
 .comment       0x0000000000000023       0x24 H:/Real_Time/TP_bsp/\libucosii_bsp.a(alt_alarm_start.o)
 .comment       0x0000000000000023       0x24 H:/Real_Time/TP_bsp/\libucosii_bsp.a(alt_dcache_flush_all.o)
 .comment       0x0000000000000023       0x24 H:/Real_Time/TP_bsp/\libucosii_bsp.a(alt_dev_llist_insert.o)
 .comment       0x0000000000000023       0x24 H:/Real_Time/TP_bsp/\libucosii_bsp.a(alt_do_ctors.o)
 .comment       0x0000000000000023       0x24 H:/Real_Time/TP_bsp/\libucosii_bsp.a(alt_do_dtors.o)
 .comment       0x0000000000000023       0x24 H:/Real_Time/TP_bsp/\libucosii_bsp.a(alt_find_dev.o)
 .comment       0x0000000000000023       0x24 H:/Real_Time/TP_bsp/\libucosii_bsp.a(alt_icache_flush_all.o)
 .comment       0x0000000000000023       0x24 H:/Real_Time/TP_bsp/\libucosii_bsp.a(alt_iic.o)
 .comment       0x0000000000000023       0x24 H:/Real_Time/TP_bsp/\libucosii_bsp.a(alt_iic_isr_register.o)
 .comment       0x0000000000000023       0x24 H:/Real_Time/TP_bsp/\libucosii_bsp.a(alt_io_redirect.o)
 .comment       0x0000000000000023       0x24 H:/Real_Time/TP_bsp/\libucosii_bsp.a(alt_irq_handler.o)
 .comment       0x0000000000000023       0x24 H:/Real_Time/TP_bsp/\libucosii_bsp.a(alt_irq_vars.o)
 .comment       0x0000000000000023       0x24 H:/Real_Time/TP_bsp/\libucosii_bsp.a(alt_open.o)
 .comment       0x0000000000000023       0x24 H:/Real_Time/TP_bsp/\libucosii_bsp.a(alt_tick.o)
 .comment       0x0000000000000023       0x24 H:/Real_Time/TP_bsp/\libucosii_bsp.a(altera_nios2_gen2_irq.o)
 .comment       0x0000000000000023       0x24 H:/Real_Time/TP_bsp/\libucosii_bsp.a(os_cpu_c.o)
 .comment       0x0000000000000023       0x24 H:/Real_Time/TP_bsp/\libucosii_bsp.a(alt_find_file.o)
 .comment       0x0000000000000023       0x24 H:/Real_Time/TP_bsp/\libucosii_bsp.a(alt_get_fd.o)
 .comment       0x0000000000000023       0x24 H:/Real_Time/TP_bsp/\libucosii_bsp.a(alt_instruction_exception_entry.o)
 .comment       0x0000000000000023       0x24 c:/intelfpga_lite/18.1/nios2eds/bin/gnu/h-x86_64-mingw32/bin/../lib/gcc/nios2-elf/5.3.0/../../../../../H-x86_64-mingw32/nios2-elf/lib/mno-hw-mul\libc.a(lib_a-atexit.o)
 .comment       0x0000000000000023       0x24 c:/intelfpga_lite/18.1/nios2eds/bin/gnu/h-x86_64-mingw32/bin/../lib/gcc/nios2-elf/5.3.0/../../../../../H-x86_64-mingw32/nios2-elf/lib/mno-hw-mul\libc.a(lib_a-exit.o)
 .comment       0x0000000000000023       0x24 c:/intelfpga_lite/18.1/nios2eds/bin/gnu/h-x86_64-mingw32/bin/../lib/gcc/nios2-elf/5.3.0/../../../../../H-x86_64-mingw32/nios2-elf/lib/mno-hw-mul\libc.a(lib_a-memcmp.o)
 .comment       0x0000000000000023       0x24 c:/intelfpga_lite/18.1/nios2eds/bin/gnu/h-x86_64-mingw32/bin/../lib/gcc/nios2-elf/5.3.0/../../../../../H-x86_64-mingw32/nios2-elf/lib/mno-hw-mul\libc.a(lib_a-__atexit.o)
 .comment       0x0000000000000023       0x24 c:/intelfpga_lite/18.1/nios2eds/bin/gnu/h-x86_64-mingw32/bin/../lib/gcc/nios2-elf/5.3.0/../../../../../H-x86_64-mingw32/nios2-elf/lib/mno-hw-mul\libc.a(lib_a-__call_atexit.o)
 .comment       0x0000000000000023       0x24 H:/Real_Time/TP_bsp/\libucosii_bsp.a(alt_exit.o)

.debug
 *(.debug)

.line
 *(.line)

.debug_srcinfo
 *(.debug_srcinfo)

.debug_sfnames
 *(.debug_sfnames)

.debug_aranges  0x0000000000000000      0xbb0
 *(.debug_aranges)
 .debug_aranges
                0x0000000000000000       0x28 H:/Real_Time/TP_bsp//obj/HAL/src/crt0.o
 .debug_aranges
                0x0000000000000028       0x20 obj/default/hello_ucosii.o
 .debug_aranges
                0x0000000000000048       0x28 c:/intelfpga_lite/18.1/nios2eds/bin/gnu/h-x86_64-mingw32/bin/../lib/gcc/nios2-elf/5.3.0/../../../../../H-x86_64-mingw32/nios2-elf/lib/mno-hw-mul\libc.a(lib_a-puts.o)
 .debug_aranges
                0x0000000000000070       0x20 c:/intelfpga_lite/18.1/nios2eds/bin/gnu/h-x86_64-mingw32/bin/../lib/gcc/nios2-elf/5.3.0/../../../../../H-x86_64-mingw32/nios2-elf/lib/mno-hw-mul\libc.a(lib_a-strlen.o)
 .debug_aranges
                0x0000000000000090       0x68 c:/intelfpga_lite/18.1/nios2eds/bin/gnu/h-x86_64-mingw32/bin/../lib/gcc/nios2-elf/5.3.0/../../../../../H-x86_64-mingw32/nios2-elf/lib/mno-hw-mul\libc.a(lib_a-findfp.o)
 .debug_aranges
                0x00000000000000f8       0x20 c:/intelfpga_lite/18.1/nios2eds/bin/gnu/h-x86_64-mingw32/bin/../lib/gcc/nios2-elf/5.3.0/../../../../../H-x86_64-mingw32/nios2-elf/lib/mno-hw-mul\libc.a(lib_a-fvwrite.o)
 .debug_aranges
                0x0000000000000118       0x28 c:/intelfpga_lite/18.1/nios2eds/bin/gnu/h-x86_64-mingw32/bin/../lib/gcc/nios2-elf/5.3.0/../../../../../H-x86_64-mingw32/nios2-elf/lib/mno-hw-mul\libc.a(lib_a-fwalk.o)
 .debug_aranges
                0x0000000000000140       0x18 c:/intelfpga_lite/18.1/nios2eds/bin/gnu/h-x86_64-mingw32/bin/../lib/gcc/nios2-elf/5.3.0/../../../../../H-x86_64-mingw32/nios2-elf/lib/mno-hw-mul\libc.a(lib_a-impure.o)
 .debug_aranges
                0x0000000000000158       0x20 c:/intelfpga_lite/18.1/nios2eds/bin/gnu/h-x86_64-mingw32/bin/../lib/gcc/nios2-elf/5.3.0/../../../../../H-x86_64-mingw32/nios2-elf/lib/mno-hw-mul\libc.a(lib_a-mallocr.o)
 .debug_aranges
                0x0000000000000178       0x20 c:/intelfpga_lite/18.1/nios2eds/bin/gnu/h-x86_64-mingw32/bin/../lib/gcc/nios2-elf/5.3.0/../../../../../H-x86_64-mingw32/nios2-elf/lib/mno-hw-mul\libc.a(lib_a-memchr.o)
 .debug_aranges
                0x0000000000000198       0x20 c:/intelfpga_lite/18.1/nios2eds/bin/gnu/h-x86_64-mingw32/bin/../lib/gcc/nios2-elf/5.3.0/../../../../../H-x86_64-mingw32/nios2-elf/lib/mno-hw-mul\libc.a(lib_a-memcpy.o)
 .debug_aranges
                0x00000000000001b8       0x20 c:/intelfpga_lite/18.1/nios2eds/bin/gnu/h-x86_64-mingw32/bin/../lib/gcc/nios2-elf/5.3.0/../../../../../H-x86_64-mingw32/nios2-elf/lib/mno-hw-mul\libc.a(lib_a-memmove.o)
 .debug_aranges
                0x00000000000001d8       0x20 c:/intelfpga_lite/18.1/nios2eds/bin/gnu/h-x86_64-mingw32/bin/../lib/gcc/nios2-elf/5.3.0/../../../../../H-x86_64-mingw32/nios2-elf/lib/mno-hw-mul\libc.a(lib_a-memset.o)
 .debug_aranges
                0x00000000000001f8       0x20 c:/intelfpga_lite/18.1/nios2eds/bin/gnu/h-x86_64-mingw32/bin/../lib/gcc/nios2-elf/5.3.0/../../../../../H-x86_64-mingw32/nios2-elf/lib/mno-hw-mul\libc.a(lib_a-reallocr.o)
 .debug_aranges
                0x0000000000000218       0x20 c:/intelfpga_lite/18.1/nios2eds/bin/gnu/h-x86_64-mingw32/bin/../lib/gcc/nios2-elf/5.3.0/../../../../../H-x86_64-mingw32/nios2-elf/lib/mno-hw-mul\libc.a(lib_a-sbrkr.o)
 .debug_aranges
                0x0000000000000238       0x40 c:/intelfpga_lite/18.1/nios2eds/bin/gnu/h-x86_64-mingw32/bin/../lib/gcc/nios2-elf/5.3.0/../../../../../H-x86_64-mingw32/nios2-elf/lib/mno-hw-mul\libc.a(lib_a-stdio.o)
 .debug_aranges
                0x0000000000000278       0x20 c:/intelfpga_lite/18.1/nios2eds/bin/gnu/h-x86_64-mingw32/bin/../lib/gcc/nios2-elf/5.3.0/../../../../../H-x86_64-mingw32/nios2-elf/lib/mno-hw-mul\libc.a(lib_a-writer.o)
 .debug_aranges
                0x0000000000000298       0x20 c:/intelfpga_lite/18.1/nios2eds/bin/gnu/h-x86_64-mingw32/bin/../lib/gcc/nios2-elf/5.3.0/../../../../../H-x86_64-mingw32/nios2-elf/lib/mno-hw-mul\libc.a(lib_a-wsetup.o)
 .debug_aranges
                0x00000000000002b8       0x20 c:/intelfpga_lite/18.1/nios2eds/bin/gnu/h-x86_64-mingw32/bin/../lib/gcc/nios2-elf/5.3.0/../../../../../H-x86_64-mingw32/nios2-elf/lib/mno-hw-mul\libc.a(closer.o)
 .debug_aranges
                0x00000000000002d8       0x28 c:/intelfpga_lite/18.1/nios2eds/bin/gnu/h-x86_64-mingw32/bin/../lib/gcc/nios2-elf/5.3.0/../../../../../H-x86_64-mingw32/nios2-elf/lib/mno-hw-mul\libc.a(lib_a-fclose.o)
 .debug_aranges
                0x0000000000000300       0x30 c:/intelfpga_lite/18.1/nios2eds/bin/gnu/h-x86_64-mingw32/bin/../lib/gcc/nios2-elf/5.3.0/../../../../../H-x86_64-mingw32/nios2-elf/lib/mno-hw-mul\libc.a(lib_a-fflush.o)
 .debug_aranges
                0x0000000000000330       0x28 c:/intelfpga_lite/18.1/nios2eds/bin/gnu/h-x86_64-mingw32/bin/../lib/gcc/nios2-elf/5.3.0/../../../../../H-x86_64-mingw32/nios2-elf/lib/mno-hw-mul\libc.a(lib_a-freer.o)
 .debug_aranges
                0x0000000000000358       0x18 c:/intelfpga_lite/18.1/nios2eds/bin/gnu/h-x86_64-mingw32/bin/../lib/gcc/nios2-elf/5.3.0/../../../../../H-x86_64-mingw32/nios2-elf/lib/mno-hw-mul\libc.a(lib_a-int_errno.o)
 .debug_aranges
                0x0000000000000370       0x20 c:/intelfpga_lite/18.1/nios2eds/bin/gnu/h-x86_64-mingw32/bin/../lib/gcc/nios2-elf/5.3.0/../../../../../H-x86_64-mingw32/nios2-elf/lib/mno-hw-mul\libc.a(lib_a-lseekr.o)
 .debug_aranges
                0x0000000000000390       0x20 c:/intelfpga_lite/18.1/nios2eds/bin/gnu/h-x86_64-mingw32/bin/../lib/gcc/nios2-elf/5.3.0/../../../../../H-x86_64-mingw32/nios2-elf/lib/mno-hw-mul\libc.a(lib_a-makebuf.o)
 .debug_aranges
                0x00000000000003b0       0x20 c:/intelfpga_lite/18.1/nios2eds/bin/gnu/h-x86_64-mingw32/bin/../lib/gcc/nios2-elf/5.3.0/../../../../../H-x86_64-mingw32/nios2-elf/lib/mno-hw-mul\libc.a(lib_a-readr.o)
 .debug_aranges
                0x00000000000003d0       0x20 c:/intelfpga_lite/18.1/nios2eds/bin/gnu/h-x86_64-mingw32/bin/../lib/gcc/nios2-elf/5.3.0/../../../../../H-x86_64-mingw32/nios2-elf/lib/mno-hw-mul\libc.a(lib_a-fstatr.o)
 .debug_aranges
                0x00000000000003f0       0x20 c:/intelfpga_lite/18.1/nios2eds/bin/gnu/h-x86_64-mingw32/bin/../lib/gcc/nios2-elf/5.3.0/../../../../../H-x86_64-mingw32/nios2-elf/lib/mno-hw-mul\libc.a(lib_a-isattyr.o)
 .debug_aranges
                0x0000000000000410       0x20 c:/intelfpga_lite/18.1/nios2eds/bin/gnu/h-x86_64-mingw32/bin/../lib/gcc/nios2-elf/5.3.0/mno-hw-mul\libgcc.a(lib2-divmod.o)
 .debug_aranges
                0x0000000000000430       0x20 c:/intelfpga_lite/18.1/nios2eds/bin/gnu/h-x86_64-mingw32/bin/../lib/gcc/nios2-elf/5.3.0/mno-hw-mul\libgcc.a(lib2-mul.o)
 .debug_aranges
                0x0000000000000450       0x20 H:/Real_Time/TP_bsp/\libucosii_bsp.a(alt_close.o)
 .debug_aranges
                0x0000000000000470       0x20 H:/Real_Time/TP_bsp/\libucosii_bsp.a(alt_dev.o)
 .debug_aranges
                0x0000000000000490       0x18 H:/Real_Time/TP_bsp/\libucosii_bsp.a(alt_errno.o)
 .debug_aranges
                0x00000000000004a8       0x20 H:/Real_Time/TP_bsp/\libucosii_bsp.a(alt_fstat.o)
 .debug_aranges
                0x00000000000004c8       0x20 H:/Real_Time/TP_bsp/\libucosii_bsp.a(alt_isatty.o)
 .debug_aranges
                0x00000000000004e8       0x20 H:/Real_Time/TP_bsp/\libucosii_bsp.a(alt_load.o)
 .debug_aranges
                0x0000000000000508       0x20 H:/Real_Time/TP_bsp/\libucosii_bsp.a(alt_lseek.o)
 .debug_aranges
                0x0000000000000528       0x20 H:/Real_Time/TP_bsp/\libucosii_bsp.a(alt_main.o)
 .debug_aranges
                0x0000000000000548       0x20 H:/Real_Time/TP_bsp/\libucosii_bsp.a(alt_read.o)
 .debug_aranges
                0x0000000000000568       0x20 H:/Real_Time/TP_bsp/\libucosii_bsp.a(alt_release_fd.o)
 .debug_aranges
                0x0000000000000588       0x20 H:/Real_Time/TP_bsp/\libucosii_bsp.a(alt_sbrk.o)
 .debug_aranges
                0x00000000000005a8       0x20 H:/Real_Time/TP_bsp/\libucosii_bsp.a(alt_write.o)
 .debug_aranges
                0x00000000000005c8       0x20 H:/Real_Time/TP_bsp/\libucosii_bsp.a(alt_env_lock.o)
 .debug_aranges
                0x00000000000005e8       0x20 H:/Real_Time/TP_bsp/\libucosii_bsp.a(alt_malloc_lock.o)
 .debug_aranges
                0x0000000000000608       0x20 H:/Real_Time/TP_bsp/\libucosii_bsp.a(os_core.o)
 .debug_aranges
                0x0000000000000628       0x20 H:/Real_Time/TP_bsp/\libucosii_bsp.a(os_dbg.o)
 .debug_aranges
                0x0000000000000648       0x20 H:/Real_Time/TP_bsp/\libucosii_bsp.a(os_flag.o)
 .debug_aranges
                0x0000000000000668       0x20 H:/Real_Time/TP_bsp/\libucosii_bsp.a(os_mem.o)
 .debug_aranges
                0x0000000000000688       0x20 H:/Real_Time/TP_bsp/\libucosii_bsp.a(os_q.o)
 .debug_aranges
                0x00000000000006a8       0x20 H:/Real_Time/TP_bsp/\libucosii_bsp.a(os_sem.o)
 .debug_aranges
                0x00000000000006c8       0x20 H:/Real_Time/TP_bsp/\libucosii_bsp.a(os_task.o)
 .debug_aranges
                0x00000000000006e8       0x20 H:/Real_Time/TP_bsp/\libucosii_bsp.a(os_time.o)
 .debug_aranges
                0x0000000000000708       0x20 H:/Real_Time/TP_bsp/\libucosii_bsp.a(alt_sys_init.o)
 .debug_aranges
                0x0000000000000728       0x20 H:/Real_Time/TP_bsp/\libucosii_bsp.a(altera_avalon_jtag_uart_fd.o)
 .debug_aranges
                0x0000000000000748       0x20 H:/Real_Time/TP_bsp/\libucosii_bsp.a(altera_avalon_jtag_uart_init.o)
 .debug_aranges
                0x0000000000000768       0x20 H:/Real_Time/TP_bsp/\libucosii_bsp.a(altera_avalon_jtag_uart_ioctl.o)
 .debug_aranges
                0x0000000000000788       0x20 H:/Real_Time/TP_bsp/\libucosii_bsp.a(altera_avalon_jtag_uart_read.o)
 .debug_aranges
                0x00000000000007a8       0x20 H:/Real_Time/TP_bsp/\libucosii_bsp.a(altera_avalon_jtag_uart_write.o)
 .debug_aranges
                0x00000000000007c8       0x20 H:/Real_Time/TP_bsp/\libucosii_bsp.a(altera_avalon_timer_sc.o)
 .debug_aranges
                0x00000000000007e8       0x20 H:/Real_Time/TP_bsp/\libucosii_bsp.a(altera_modular_adc.o)
 .debug_aranges
                0x0000000000000808       0x20 H:/Real_Time/TP_bsp/\libucosii_bsp.a(alt_alarm_start.o)
 .debug_aranges
                0x0000000000000828       0x20 H:/Real_Time/TP_bsp/\libucosii_bsp.a(alt_dcache_flush_all.o)
 .debug_aranges
                0x0000000000000848       0x20 H:/Real_Time/TP_bsp/\libucosii_bsp.a(alt_dev_llist_insert.o)
 .debug_aranges
                0x0000000000000868       0x20 H:/Real_Time/TP_bsp/\libucosii_bsp.a(alt_do_ctors.o)
 .debug_aranges
                0x0000000000000888       0x20 H:/Real_Time/TP_bsp/\libucosii_bsp.a(alt_do_dtors.o)
 .debug_aranges
                0x00000000000008a8       0x20 H:/Real_Time/TP_bsp/\libucosii_bsp.a(alt_find_dev.o)
 .debug_aranges
                0x00000000000008c8       0x20 H:/Real_Time/TP_bsp/\libucosii_bsp.a(alt_icache_flush_all.o)
 .debug_aranges
                0x00000000000008e8       0x20 H:/Real_Time/TP_bsp/\libucosii_bsp.a(alt_iic.o)
 .debug_aranges
                0x0000000000000908       0x20 H:/Real_Time/TP_bsp/\libucosii_bsp.a(alt_iic_isr_register.o)
 .debug_aranges
                0x0000000000000928       0x20 H:/Real_Time/TP_bsp/\libucosii_bsp.a(alt_io_redirect.o)
 .debug_aranges
                0x0000000000000948       0x30 H:/Real_Time/TP_bsp/\libucosii_bsp.a(alt_irq_entry.o)
 .debug_aranges
                0x0000000000000978       0x20 H:/Real_Time/TP_bsp/\libucosii_bsp.a(alt_irq_handler.o)
 .debug_aranges
                0x0000000000000998       0x18 H:/Real_Time/TP_bsp/\libucosii_bsp.a(alt_irq_vars.o)
 .debug_aranges
                0x00000000000009b0       0x20 H:/Real_Time/TP_bsp/\libucosii_bsp.a(alt_open.o)
 .debug_aranges
                0x00000000000009d0       0x20 H:/Real_Time/TP_bsp/\libucosii_bsp.a(alt_tick.o)
 .debug_aranges
                0x00000000000009f0       0x20 H:/Real_Time/TP_bsp/\libucosii_bsp.a(altera_nios2_gen2_irq.o)
 .debug_aranges
                0x0000000000000a10       0x20 H:/Real_Time/TP_bsp/\libucosii_bsp.a(os_cpu_a.o)
 .debug_aranges
                0x0000000000000a30       0x20 H:/Real_Time/TP_bsp/\libucosii_bsp.a(os_cpu_c.o)
 .debug_aranges
                0x0000000000000a50       0x38 H:/Real_Time/TP_bsp/\libucosii_bsp.a(alt_exception_entry.o)
 .debug_aranges
                0x0000000000000a88       0x20 H:/Real_Time/TP_bsp/\libucosii_bsp.a(alt_find_file.o)
 .debug_aranges
                0x0000000000000aa8       0x20 H:/Real_Time/TP_bsp/\libucosii_bsp.a(alt_get_fd.o)
 .debug_aranges
                0x0000000000000ac8       0x28 H:/Real_Time/TP_bsp/\libucosii_bsp.a(alt_instruction_exception_entry.o)
 .debug_aranges
                0x0000000000000af0       0x20 c:/intelfpga_lite/18.1/nios2eds/bin/gnu/h-x86_64-mingw32/bin/../lib/gcc/nios2-elf/5.3.0/../../../../../H-x86_64-mingw32/nios2-elf/lib/mno-hw-mul\libc.a(lib_a-atexit.o)
 .debug_aranges
                0x0000000000000b10       0x20 c:/intelfpga_lite/18.1/nios2eds/bin/gnu/h-x86_64-mingw32/bin/../lib/gcc/nios2-elf/5.3.0/../../../../../H-x86_64-mingw32/nios2-elf/lib/mno-hw-mul\libc.a(lib_a-exit.o)
 .debug_aranges
                0x0000000000000b30       0x20 c:/intelfpga_lite/18.1/nios2eds/bin/gnu/h-x86_64-mingw32/bin/../lib/gcc/nios2-elf/5.3.0/../../../../../H-x86_64-mingw32/nios2-elf/lib/mno-hw-mul\libc.a(lib_a-memcmp.o)
 .debug_aranges
                0x0000000000000b50       0x20 c:/intelfpga_lite/18.1/nios2eds/bin/gnu/h-x86_64-mingw32/bin/../lib/gcc/nios2-elf/5.3.0/../../../../../H-x86_64-mingw32/nios2-elf/lib/mno-hw-mul\libc.a(lib_a-__atexit.o)
 .debug_aranges
                0x0000000000000b70       0x20 c:/intelfpga_lite/18.1/nios2eds/bin/gnu/h-x86_64-mingw32/bin/../lib/gcc/nios2-elf/5.3.0/../../../../../H-x86_64-mingw32/nios2-elf/lib/mno-hw-mul\libc.a(lib_a-__call_atexit.o)
 .debug_aranges
                0x0000000000000b90       0x20 H:/Real_Time/TP_bsp/\libucosii_bsp.a(alt_exit.o)

.debug_pubnames
 *(.debug_pubnames)

.debug_info     0x0000000000000000    0x20429
 *(.debug_info .gnu.linkonce.wi.*)
 .debug_info    0x0000000000000000       0x48 H:/Real_Time/TP_bsp//obj/HAL/src/crt0.o
 .debug_info    0x0000000000000048      0x152 obj/default/hello_ucosii.o
 .debug_info    0x000000000000019a      0xa38 c:/intelfpga_lite/18.1/nios2eds/bin/gnu/h-x86_64-mingw32/bin/../lib/gcc/nios2-elf/5.3.0/../../../../../H-x86_64-mingw32/nios2-elf/lib/mno-hw-mul\libc.a(lib_a-puts.o)
 .debug_info    0x0000000000000bd2       0xe2 c:/intelfpga_lite/18.1/nios2eds/bin/gnu/h-x86_64-mingw32/bin/../lib/gcc/nios2-elf/5.3.0/../../../../../H-x86_64-mingw32/nios2-elf/lib/mno-hw-mul\libc.a(lib_a-strlen.o)
 .debug_info    0x0000000000000cb4      0xd36 c:/intelfpga_lite/18.1/nios2eds/bin/gnu/h-x86_64-mingw32/bin/../lib/gcc/nios2-elf/5.3.0/../../../../../H-x86_64-mingw32/nios2-elf/lib/mno-hw-mul\libc.a(lib_a-findfp.o)
 .debug_info    0x00000000000019ea      0xbb8 c:/intelfpga_lite/18.1/nios2eds/bin/gnu/h-x86_64-mingw32/bin/../lib/gcc/nios2-elf/5.3.0/../../../../../H-x86_64-mingw32/nios2-elf/lib/mno-hw-mul\libc.a(lib_a-fvwrite.o)
 .debug_info    0x00000000000025a2      0x9b0 c:/intelfpga_lite/18.1/nios2eds/bin/gnu/h-x86_64-mingw32/bin/../lib/gcc/nios2-elf/5.3.0/../../../../../H-x86_64-mingw32/nios2-elf/lib/mno-hw-mul\libc.a(lib_a-fwalk.o)
 .debug_info    0x0000000000002f52      0x8a1 c:/intelfpga_lite/18.1/nios2eds/bin/gnu/h-x86_64-mingw32/bin/../lib/gcc/nios2-elf/5.3.0/../../../../../H-x86_64-mingw32/nios2-elf/lib/mno-hw-mul\libc.a(lib_a-impure.o)
 .debug_info    0x00000000000037f3      0xd57 c:/intelfpga_lite/18.1/nios2eds/bin/gnu/h-x86_64-mingw32/bin/../lib/gcc/nios2-elf/5.3.0/../../../../../H-x86_64-mingw32/nios2-elf/lib/mno-hw-mul\libc.a(lib_a-mallocr.o)
 .debug_info    0x000000000000454a      0x132 c:/intelfpga_lite/18.1/nios2eds/bin/gnu/h-x86_64-mingw32/bin/../lib/gcc/nios2-elf/5.3.0/../../../../../H-x86_64-mingw32/nios2-elf/lib/mno-hw-mul\libc.a(lib_a-memchr.o)
 .debug_info    0x000000000000467c      0x144 c:/intelfpga_lite/18.1/nios2eds/bin/gnu/h-x86_64-mingw32/bin/../lib/gcc/nios2-elf/5.3.0/../../../../../H-x86_64-mingw32/nios2-elf/lib/mno-hw-mul\libc.a(lib_a-memcpy.o)
 .debug_info    0x00000000000047c0      0x13a c:/intelfpga_lite/18.1/nios2eds/bin/gnu/h-x86_64-mingw32/bin/../lib/gcc/nios2-elf/5.3.0/../../../../../H-x86_64-mingw32/nios2-elf/lib/mno-hw-mul\libc.a(lib_a-memmove.o)
 .debug_info    0x00000000000048fa      0x121 c:/intelfpga_lite/18.1/nios2eds/bin/gnu/h-x86_64-mingw32/bin/../lib/gcc/nios2-elf/5.3.0/../../../../../H-x86_64-mingw32/nios2-elf/lib/mno-hw-mul\libc.a(lib_a-memset.o)
 .debug_info    0x0000000000004a1b      0xc6b c:/intelfpga_lite/18.1/nios2eds/bin/gnu/h-x86_64-mingw32/bin/../lib/gcc/nios2-elf/5.3.0/../../../../../H-x86_64-mingw32/nios2-elf/lib/mno-hw-mul\libc.a(lib_a-reallocr.o)
 .debug_info    0x0000000000005686      0x900 c:/intelfpga_lite/18.1/nios2eds/bin/gnu/h-x86_64-mingw32/bin/../lib/gcc/nios2-elf/5.3.0/../../../../../H-x86_64-mingw32/nios2-elf/lib/mno-hw-mul\libc.a(lib_a-sbrkr.o)
 .debug_info    0x0000000000005f86      0xb32 c:/intelfpga_lite/18.1/nios2eds/bin/gnu/h-x86_64-mingw32/bin/../lib/gcc/nios2-elf/5.3.0/../../../../../H-x86_64-mingw32/nios2-elf/lib/mno-hw-mul\libc.a(lib_a-stdio.o)
 .debug_info    0x0000000000006ab8      0x928 c:/intelfpga_lite/18.1/nios2eds/bin/gnu/h-x86_64-mingw32/bin/../lib/gcc/nios2-elf/5.3.0/../../../../../H-x86_64-mingw32/nios2-elf/lib/mno-hw-mul\libc.a(lib_a-writer.o)
 .debug_info    0x00000000000073e0      0x936 c:/intelfpga_lite/18.1/nios2eds/bin/gnu/h-x86_64-mingw32/bin/../lib/gcc/nios2-elf/5.3.0/../../../../../H-x86_64-mingw32/nios2-elf/lib/mno-hw-mul\libc.a(lib_a-wsetup.o)
 .debug_info    0x0000000000007d16      0x8df c:/intelfpga_lite/18.1/nios2eds/bin/gnu/h-x86_64-mingw32/bin/../lib/gcc/nios2-elf/5.3.0/../../../../../H-x86_64-mingw32/nios2-elf/lib/mno-hw-mul\libc.a(closer.o)
 .debug_info    0x00000000000085f5      0xa23 c:/intelfpga_lite/18.1/nios2eds/bin/gnu/h-x86_64-mingw32/bin/../lib/gcc/nios2-elf/5.3.0/../../../../../H-x86_64-mingw32/nios2-elf/lib/mno-hw-mul\libc.a(lib_a-fclose.o)
 .debug_info    0x0000000000009018      0xa93 c:/intelfpga_lite/18.1/nios2eds/bin/gnu/h-x86_64-mingw32/bin/../lib/gcc/nios2-elf/5.3.0/../../../../../H-x86_64-mingw32/nios2-elf/lib/mno-hw-mul\libc.a(lib_a-fflush.o)
 .debug_info    0x0000000000009aab      0xbf7 c:/intelfpga_lite/18.1/nios2eds/bin/gnu/h-x86_64-mingw32/bin/../lib/gcc/nios2-elf/5.3.0/../../../../../H-x86_64-mingw32/nios2-elf/lib/mno-hw-mul\libc.a(lib_a-freer.o)
 .debug_info    0x000000000000a6a2       0x8a c:/intelfpga_lite/18.1/nios2eds/bin/gnu/h-x86_64-mingw32/bin/../lib/gcc/nios2-elf/5.3.0/../../../../../H-x86_64-mingw32/nios2-elf/lib/mno-hw-mul\libc.a(lib_a-int_errno.o)
 .debug_info    0x000000000000a72c      0x90b c:/intelfpga_lite/18.1/nios2eds/bin/gnu/h-x86_64-mingw32/bin/../lib/gcc/nios2-elf/5.3.0/../../../../../H-x86_64-mingw32/nios2-elf/lib/mno-hw-mul\libc.a(lib_a-lseekr.o)
 .debug_info    0x000000000000b037      0xad8 c:/intelfpga_lite/18.1/nios2eds/bin/gnu/h-x86_64-mingw32/bin/../lib/gcc/nios2-elf/5.3.0/../../../../../H-x86_64-mingw32/nios2-elf/lib/mno-hw-mul\libc.a(lib_a-makebuf.o)
 .debug_info    0x000000000000bb0f      0x921 c:/intelfpga_lite/18.1/nios2eds/bin/gnu/h-x86_64-mingw32/bin/../lib/gcc/nios2-elf/5.3.0/../../../../../H-x86_64-mingw32/nios2-elf/lib/mno-hw-mul\libc.a(lib_a-readr.o)
 .debug_info    0x000000000000c430      0xa5d c:/intelfpga_lite/18.1/nios2eds/bin/gnu/h-x86_64-mingw32/bin/../lib/gcc/nios2-elf/5.3.0/../../../../../H-x86_64-mingw32/nios2-elf/lib/mno-hw-mul\libc.a(lib_a-fstatr.o)
 .debug_info    0x000000000000ce8d      0x8df c:/intelfpga_lite/18.1/nios2eds/bin/gnu/h-x86_64-mingw32/bin/../lib/gcc/nios2-elf/5.3.0/../../../../../H-x86_64-mingw32/nios2-elf/lib/mno-hw-mul\libc.a(lib_a-isattyr.o)
 .debug_info    0x000000000000d76c      0x2c6 c:/intelfpga_lite/18.1/nios2eds/bin/gnu/h-x86_64-mingw32/bin/../lib/gcc/nios2-elf/5.3.0/mno-hw-mul\libgcc.a(lib2-divmod.o)
 .debug_info    0x000000000000da32       0xb4 c:/intelfpga_lite/18.1/nios2eds/bin/gnu/h-x86_64-mingw32/bin/../lib/gcc/nios2-elf/5.3.0/mno-hw-mul\libgcc.a(lib2-mul.o)
 .debug_info    0x000000000000dae6      0x355 H:/Real_Time/TP_bsp/\libucosii_bsp.a(alt_close.o)
 .debug_info    0x000000000000de3b      0x585 H:/Real_Time/TP_bsp/\libucosii_bsp.a(alt_dev.o)
 .debug_info    0x000000000000e3c0       0xa6 H:/Real_Time/TP_bsp/\libucosii_bsp.a(alt_errno.o)
 .debug_info    0x000000000000e466      0x4bc H:/Real_Time/TP_bsp/\libucosii_bsp.a(alt_fstat.o)
 .debug_info    0x000000000000e922      0x4bf H:/Real_Time/TP_bsp/\libucosii_bsp.a(alt_isatty.o)
 .debug_info    0x000000000000ede1      0x145 H:/Real_Time/TP_bsp/\libucosii_bsp.a(alt_load.o)
 .debug_info    0x000000000000ef26      0x386 H:/Real_Time/TP_bsp/\libucosii_bsp.a(alt_lseek.o)
 .debug_info    0x000000000000f2ac      0x26d H:/Real_Time/TP_bsp/\libucosii_bsp.a(alt_main.o)
 .debug_info    0x000000000000f519      0x4e4 H:/Real_Time/TP_bsp/\libucosii_bsp.a(alt_read.o)
 .debug_info    0x000000000000f9fd      0x2f9 H:/Real_Time/TP_bsp/\libucosii_bsp.a(alt_release_fd.o)
 .debug_info    0x000000000000fcf6      0x1ac H:/Real_Time/TP_bsp/\libucosii_bsp.a(alt_sbrk.o)
 .debug_info    0x000000000000fea2      0x4eb H:/Real_Time/TP_bsp/\libucosii_bsp.a(alt_write.o)
 .debug_info    0x000000000001038d      0xc67 H:/Real_Time/TP_bsp/\libucosii_bsp.a(alt_env_lock.o)
 .debug_info    0x0000000000010ff4      0xdad H:/Real_Time/TP_bsp/\libucosii_bsp.a(alt_malloc_lock.o)
 .debug_info    0x0000000000011da1     0x15b9 H:/Real_Time/TP_bsp/\libucosii_bsp.a(os_core.o)
 .debug_info    0x000000000001335a      0xaa8 H:/Real_Time/TP_bsp/\libucosii_bsp.a(os_dbg.o)
 .debug_info    0x0000000000013e02      0xf9c H:/Real_Time/TP_bsp/\libucosii_bsp.a(os_flag.o)
 .debug_info    0x0000000000014d9e      0x67a H:/Real_Time/TP_bsp/\libucosii_bsp.a(os_mem.o)
 .debug_info    0x0000000000015418      0xda3 H:/Real_Time/TP_bsp/\libucosii_bsp.a(os_q.o)
 .debug_info    0x00000000000161bb      0xa04 H:/Real_Time/TP_bsp/\libucosii_bsp.a(os_sem.o)
 .debug_info    0x0000000000016bbf     0x1117 H:/Real_Time/TP_bsp/\libucosii_bsp.a(os_task.o)
 .debug_info    0x0000000000017cd6      0x6e9 H:/Real_Time/TP_bsp/\libucosii_bsp.a(os_time.o)
 .debug_info    0x00000000000183bf      0x6b3 H:/Real_Time/TP_bsp/\libucosii_bsp.a(alt_sys_init.o)
 .debug_info    0x0000000000018a72      0x67b H:/Real_Time/TP_bsp/\libucosii_bsp.a(altera_avalon_jtag_uart_fd.o)
 .debug_info    0x00000000000190ed      0x6b3 H:/Real_Time/TP_bsp/\libucosii_bsp.a(altera_avalon_jtag_uart_init.o)
 .debug_info    0x00000000000197a0      0x3cd H:/Real_Time/TP_bsp/\libucosii_bsp.a(altera_avalon_jtag_uart_ioctl.o)
 .debug_info    0x0000000000019b6d      0x57a H:/Real_Time/TP_bsp/\libucosii_bsp.a(altera_avalon_jtag_uart_read.o)
 .debug_info    0x000000000001a0e7      0x579 H:/Real_Time/TP_bsp/\libucosii_bsp.a(altera_avalon_jtag_uart_write.o)
 .debug_info    0x000000000001a660      0x226 H:/Real_Time/TP_bsp/\libucosii_bsp.a(altera_avalon_timer_sc.o)
 .debug_info    0x000000000001a886      0x87c H:/Real_Time/TP_bsp/\libucosii_bsp.a(altera_modular_adc.o)
 .debug_info    0x000000000001b102      0x2cc H:/Real_Time/TP_bsp/\libucosii_bsp.a(alt_alarm_start.o)
 .debug_info    0x000000000001b3ce       0x92 H:/Real_Time/TP_bsp/\libucosii_bsp.a(alt_dcache_flush_all.o)
 .debug_info    0x000000000001b460      0x1a9 H:/Real_Time/TP_bsp/\libucosii_bsp.a(alt_dev_llist_insert.o)
 .debug_info    0x000000000001b609       0x83 H:/Real_Time/TP_bsp/\libucosii_bsp.a(alt_do_ctors.o)
 .debug_info    0x000000000001b68c       0x83 H:/Real_Time/TP_bsp/\libucosii_bsp.a(alt_do_dtors.o)
 .debug_info    0x000000000001b70f      0x31d H:/Real_Time/TP_bsp/\libucosii_bsp.a(alt_find_dev.o)
 .debug_info    0x000000000001ba2c       0x92 H:/Real_Time/TP_bsp/\libucosii_bsp.a(alt_icache_flush_all.o)
 .debug_info    0x000000000001babe      0x350 H:/Real_Time/TP_bsp/\libucosii_bsp.a(alt_iic.o)
 .debug_info    0x000000000001be0e      0x1ef H:/Real_Time/TP_bsp/\libucosii_bsp.a(alt_iic_isr_register.o)
 .debug_info    0x000000000001bffd      0x4d9 H:/Real_Time/TP_bsp/\libucosii_bsp.a(alt_io_redirect.o)
 .debug_info    0x000000000001c4d6       0x51 H:/Real_Time/TP_bsp/\libucosii_bsp.a(alt_irq_entry.o)
 .debug_info    0x000000000001c527      0x1b0 H:/Real_Time/TP_bsp/\libucosii_bsp.a(alt_irq_handler.o)
 .debug_info    0x000000000001c6d7       0x88 H:/Real_Time/TP_bsp/\libucosii_bsp.a(alt_irq_vars.o)
 .debug_info    0x000000000001c75f      0x3e4 H:/Real_Time/TP_bsp/\libucosii_bsp.a(alt_open.o)
 .debug_info    0x000000000001cb43      0x2a7 H:/Real_Time/TP_bsp/\libucosii_bsp.a(alt_tick.o)
 .debug_info    0x000000000001cdea       0x92 H:/Real_Time/TP_bsp/\libucosii_bsp.a(altera_nios2_gen2_irq.o)
 .debug_info    0x000000000001ce7c       0x50 H:/Real_Time/TP_bsp/\libucosii_bsp.a(os_cpu_a.o)
 .debug_info    0x000000000001cecc      0xcea H:/Real_Time/TP_bsp/\libucosii_bsp.a(os_cpu_c.o)
 .debug_info    0x000000000001dbb6       0x57 H:/Real_Time/TP_bsp/\libucosii_bsp.a(alt_exception_entry.o)
 .debug_info    0x000000000001dc0d      0x31a H:/Real_Time/TP_bsp/\libucosii_bsp.a(alt_find_file.o)
 .debug_info    0x000000000001df27      0x44b H:/Real_Time/TP_bsp/\libucosii_bsp.a(alt_get_fd.o)
 .debug_info    0x000000000001e372      0x1e7 H:/Real_Time/TP_bsp/\libucosii_bsp.a(alt_instruction_exception_entry.o)
 .debug_info    0x000000000001e559       0xfe c:/intelfpga_lite/18.1/nios2eds/bin/gnu/h-x86_64-mingw32/bin/../lib/gcc/nios2-elf/5.3.0/../../../../../H-x86_64-mingw32/nios2-elf/lib/mno-hw-mul\libc.a(lib_a-atexit.o)
 .debug_info    0x000000000001e657      0x8e4 c:/intelfpga_lite/18.1/nios2eds/bin/gnu/h-x86_64-mingw32/bin/../lib/gcc/nios2-elf/5.3.0/../../../../../H-x86_64-mingw32/nios2-elf/lib/mno-hw-mul\libc.a(lib_a-exit.o)
 .debug_info    0x000000000001ef3b      0x11a c:/intelfpga_lite/18.1/nios2eds/bin/gnu/h-x86_64-mingw32/bin/../lib/gcc/nios2-elf/5.3.0/../../../../../H-x86_64-mingw32/nios2-elf/lib/mno-hw-mul\libc.a(lib_a-memcmp.o)
 .debug_info    0x000000000001f055      0x934 c:/intelfpga_lite/18.1/nios2eds/bin/gnu/h-x86_64-mingw32/bin/../lib/gcc/nios2-elf/5.3.0/../../../../../H-x86_64-mingw32/nios2-elf/lib/mno-hw-mul\libc.a(lib_a-__atexit.o)
 .debug_info    0x000000000001f989      0x965 c:/intelfpga_lite/18.1/nios2eds/bin/gnu/h-x86_64-mingw32/bin/../lib/gcc/nios2-elf/5.3.0/../../../../../H-x86_64-mingw32/nios2-elf/lib/mno-hw-mul\libc.a(lib_a-__call_atexit.o)
 .debug_info    0x00000000000202ee      0x13b H:/Real_Time/TP_bsp/\libucosii_bsp.a(alt_exit.o)

.debug_abbrev   0x0000000000000000     0x7d2f
 *(.debug_abbrev)
 .debug_abbrev  0x0000000000000000       0x12 H:/Real_Time/TP_bsp//obj/HAL/src/crt0.o
 .debug_abbrev  0x0000000000000012       0xbc obj/default/hello_ucosii.o
 .debug_abbrev  0x00000000000000ce      0x249 c:/intelfpga_lite/18.1/nios2eds/bin/gnu/h-x86_64-mingw32/bin/../lib/gcc/nios2-elf/5.3.0/../../../../../H-x86_64-mingw32/nios2-elf/lib/mno-hw-mul\libc.a(lib_a-puts.o)
 .debug_abbrev  0x0000000000000317       0x90 c:/intelfpga_lite/18.1/nios2eds/bin/gnu/h-x86_64-mingw32/bin/../lib/gcc/nios2-elf/5.3.0/../../../../../H-x86_64-mingw32/nios2-elf/lib/mno-hw-mul\libc.a(lib_a-strlen.o)
 .debug_abbrev  0x00000000000003a7      0x3ad c:/intelfpga_lite/18.1/nios2eds/bin/gnu/h-x86_64-mingw32/bin/../lib/gcc/nios2-elf/5.3.0/../../../../../H-x86_64-mingw32/nios2-elf/lib/mno-hw-mul\libc.a(lib_a-findfp.o)
 .debug_abbrev  0x0000000000000754      0x228 c:/intelfpga_lite/18.1/nios2eds/bin/gnu/h-x86_64-mingw32/bin/../lib/gcc/nios2-elf/5.3.0/../../../../../H-x86_64-mingw32/nios2-elf/lib/mno-hw-mul\libc.a(lib_a-fvwrite.o)
 .debug_abbrev  0x000000000000097c      0x1d1 c:/intelfpga_lite/18.1/nios2eds/bin/gnu/h-x86_64-mingw32/bin/../lib/gcc/nios2-elf/5.3.0/../../../../../H-x86_64-mingw32/nios2-elf/lib/mno-hw-mul\libc.a(lib_a-fwalk.o)
 .debug_abbrev  0x0000000000000b4d      0x18f c:/intelfpga_lite/18.1/nios2eds/bin/gnu/h-x86_64-mingw32/bin/../lib/gcc/nios2-elf/5.3.0/../../../../../H-x86_64-mingw32/nios2-elf/lib/mno-hw-mul\libc.a(lib_a-impure.o)
 .debug_abbrev  0x0000000000000cdc      0x29d c:/intelfpga_lite/18.1/nios2eds/bin/gnu/h-x86_64-mingw32/bin/../lib/gcc/nios2-elf/5.3.0/../../../../../H-x86_64-mingw32/nios2-elf/lib/mno-hw-mul\libc.a(lib_a-mallocr.o)
 .debug_abbrev  0x0000000000000f79       0xab c:/intelfpga_lite/18.1/nios2eds/bin/gnu/h-x86_64-mingw32/bin/../lib/gcc/nios2-elf/5.3.0/../../../../../H-x86_64-mingw32/nios2-elf/lib/mno-hw-mul\libc.a(lib_a-memchr.o)
 .debug_abbrev  0x0000000000001024       0xa3 c:/intelfpga_lite/18.1/nios2eds/bin/gnu/h-x86_64-mingw32/bin/../lib/gcc/nios2-elf/5.3.0/../../../../../H-x86_64-mingw32/nios2-elf/lib/mno-hw-mul\libc.a(lib_a-memcpy.o)
 .debug_abbrev  0x00000000000010c7       0x9c c:/intelfpga_lite/18.1/nios2eds/bin/gnu/h-x86_64-mingw32/bin/../lib/gcc/nios2-elf/5.3.0/../../../../../H-x86_64-mingw32/nios2-elf/lib/mno-hw-mul\libc.a(lib_a-memmove.o)
 .debug_abbrev  0x0000000000001163       0xae c:/intelfpga_lite/18.1/nios2eds/bin/gnu/h-x86_64-mingw32/bin/../lib/gcc/nios2-elf/5.3.0/../../../../../H-x86_64-mingw32/nios2-elf/lib/mno-hw-mul\libc.a(lib_a-memset.o)
 .debug_abbrev  0x0000000000001211      0x231 c:/intelfpga_lite/18.1/nios2eds/bin/gnu/h-x86_64-mingw32/bin/../lib/gcc/nios2-elf/5.3.0/../../../../../H-x86_64-mingw32/nios2-elf/lib/mno-hw-mul\libc.a(lib_a-reallocr.o)
 .debug_abbrev  0x0000000000001442      0x20a c:/intelfpga_lite/18.1/nios2eds/bin/gnu/h-x86_64-mingw32/bin/../lib/gcc/nios2-elf/5.3.0/../../../../../H-x86_64-mingw32/nios2-elf/lib/mno-hw-mul\libc.a(lib_a-sbrkr.o)
 .debug_abbrev  0x000000000000164c      0x239 c:/intelfpga_lite/18.1/nios2eds/bin/gnu/h-x86_64-mingw32/bin/../lib/gcc/nios2-elf/5.3.0/../../../../../H-x86_64-mingw32/nios2-elf/lib/mno-hw-mul\libc.a(lib_a-stdio.o)
 .debug_abbrev  0x0000000000001885      0x1eb c:/intelfpga_lite/18.1/nios2eds/bin/gnu/h-x86_64-mingw32/bin/../lib/gcc/nios2-elf/5.3.0/../../../../../H-x86_64-mingw32/nios2-elf/lib/mno-hw-mul\libc.a(lib_a-writer.o)
 .debug_abbrev  0x0000000000001a70      0x218 c:/intelfpga_lite/18.1/nios2eds/bin/gnu/h-x86_64-mingw32/bin/../lib/gcc/nios2-elf/5.3.0/../../../../../H-x86_64-mingw32/nios2-elf/lib/mno-hw-mul\libc.a(lib_a-wsetup.o)
 .debug_abbrev  0x0000000000001c88      0x1e6 c:/intelfpga_lite/18.1/nios2eds/bin/gnu/h-x86_64-mingw32/bin/../lib/gcc/nios2-elf/5.3.0/../../../../../H-x86_64-mingw32/nios2-elf/lib/mno-hw-mul\libc.a(closer.o)
 .debug_abbrev  0x0000000000001e6e      0x2a2 c:/intelfpga_lite/18.1/nios2eds/bin/gnu/h-x86_64-mingw32/bin/../lib/gcc/nios2-elf/5.3.0/../../../../../H-x86_64-mingw32/nios2-elf/lib/mno-hw-mul\libc.a(lib_a-fclose.o)
 .debug_abbrev  0x0000000000002110      0x2a0 c:/intelfpga_lite/18.1/nios2eds/bin/gnu/h-x86_64-mingw32/bin/../lib/gcc/nios2-elf/5.3.0/../../../../../H-x86_64-mingw32/nios2-elf/lib/mno-hw-mul\libc.a(lib_a-fflush.o)
 .debug_abbrev  0x00000000000023b0      0x264 c:/intelfpga_lite/18.1/nios2eds/bin/gnu/h-x86_64-mingw32/bin/../lib/gcc/nios2-elf/5.3.0/../../../../../H-x86_64-mingw32/nios2-elf/lib/mno-hw-mul\libc.a(lib_a-freer.o)
 .debug_abbrev  0x0000000000002614       0x37 c:/intelfpga_lite/18.1/nios2eds/bin/gnu/h-x86_64-mingw32/bin/../lib/gcc/nios2-elf/5.3.0/../../../../../H-x86_64-mingw32/nios2-elf/lib/mno-hw-mul\libc.a(lib_a-int_errno.o)
 .debug_abbrev  0x000000000000264b      0x1f5 c:/intelfpga_lite/18.1/nios2eds/bin/gnu/h-x86_64-mingw32/bin/../lib/gcc/nios2-elf/5.3.0/../../../../../H-x86_64-mingw32/nios2-elf/lib/mno-hw-mul\libc.a(lib_a-lseekr.o)
 .debug_abbrev  0x0000000000002840      0x20f c:/intelfpga_lite/18.1/nios2eds/bin/gnu/h-x86_64-mingw32/bin/../lib/gcc/nios2-elf/5.3.0/../../../../../H-x86_64-mingw32/nios2-elf/lib/mno-hw-mul\libc.a(lib_a-makebuf.o)
 .debug_abbrev  0x0000000000002a4f      0x1e6 c:/intelfpga_lite/18.1/nios2eds/bin/gnu/h-x86_64-mingw32/bin/../lib/gcc/nios2-elf/5.3.0/../../../../../H-x86_64-mingw32/nios2-elf/lib/mno-hw-mul\libc.a(lib_a-readr.o)
 .debug_abbrev  0x0000000000002c35      0x1f5 c:/intelfpga_lite/18.1/nios2eds/bin/gnu/h-x86_64-mingw32/bin/../lib/gcc/nios2-elf/5.3.0/../../../../../H-x86_64-mingw32/nios2-elf/lib/mno-hw-mul\libc.a(lib_a-fstatr.o)
 .debug_abbrev  0x0000000000002e2a      0x1e6 c:/intelfpga_lite/18.1/nios2eds/bin/gnu/h-x86_64-mingw32/bin/../lib/gcc/nios2-elf/5.3.0/../../../../../H-x86_64-mingw32/nios2-elf/lib/mno-hw-mul\libc.a(lib_a-isattyr.o)
 .debug_abbrev  0x0000000000003010      0x10e c:/intelfpga_lite/18.1/nios2eds/bin/gnu/h-x86_64-mingw32/bin/../lib/gcc/nios2-elf/5.3.0/mno-hw-mul\libgcc.a(lib2-divmod.o)
 .debug_abbrev  0x000000000000311e       0x6f c:/intelfpga_lite/18.1/nios2eds/bin/gnu/h-x86_64-mingw32/bin/../lib/gcc/nios2-elf/5.3.0/mno-hw-mul\libgcc.a(lib2-mul.o)
 .debug_abbrev  0x000000000000318d      0x126 H:/Real_Time/TP_bsp/\libucosii_bsp.a(alt_close.o)
 .debug_abbrev  0x00000000000032b3      0x11c H:/Real_Time/TP_bsp/\libucosii_bsp.a(alt_dev.o)
 .debug_abbrev  0x00000000000033cf       0x5a H:/Real_Time/TP_bsp/\libucosii_bsp.a(alt_errno.o)
 .debug_abbrev  0x0000000000003429      0x126 H:/Real_Time/TP_bsp/\libucosii_bsp.a(alt_fstat.o)
 .debug_abbrev  0x000000000000354f      0x126 H:/Real_Time/TP_bsp/\libucosii_bsp.a(alt_isatty.o)
 .debug_abbrev  0x0000000000003675       0x9f H:/Real_Time/TP_bsp/\libucosii_bsp.a(alt_load.o)
 .debug_abbrev  0x0000000000003714      0x126 H:/Real_Time/TP_bsp/\libucosii_bsp.a(alt_lseek.o)
 .debug_abbrev  0x000000000000383a      0x139 H:/Real_Time/TP_bsp/\libucosii_bsp.a(alt_main.o)
 .debug_abbrev  0x0000000000003973      0x135 H:/Real_Time/TP_bsp/\libucosii_bsp.a(alt_read.o)
 .debug_abbrev  0x0000000000003aa8       0xe5 H:/Real_Time/TP_bsp/\libucosii_bsp.a(alt_release_fd.o)
 .debug_abbrev  0x0000000000003b8d      0x112 H:/Real_Time/TP_bsp/\libucosii_bsp.a(alt_sbrk.o)
 .debug_abbrev  0x0000000000003c9f      0x13a H:/Real_Time/TP_bsp/\libucosii_bsp.a(alt_write.o)
 .debug_abbrev  0x0000000000003dd9      0x1e3 H:/Real_Time/TP_bsp/\libucosii_bsp.a(alt_env_lock.o)
 .debug_abbrev  0x0000000000003fbc      0x26d H:/Real_Time/TP_bsp/\libucosii_bsp.a(alt_malloc_lock.o)
 .debug_abbrev  0x0000000000004229      0x302 H:/Real_Time/TP_bsp/\libucosii_bsp.a(os_core.o)
 .debug_abbrev  0x000000000000452b       0xf7 H:/Real_Time/TP_bsp/\libucosii_bsp.a(os_dbg.o)
 .debug_abbrev  0x0000000000004622      0x25a H:/Real_Time/TP_bsp/\libucosii_bsp.a(os_flag.o)
 .debug_abbrev  0x000000000000487c      0x228 H:/Real_Time/TP_bsp/\libucosii_bsp.a(os_mem.o)
 .debug_abbrev  0x0000000000004aa4      0x248 H:/Real_Time/TP_bsp/\libucosii_bsp.a(os_q.o)
 .debug_abbrev  0x0000000000004cec      0x262 H:/Real_Time/TP_bsp/\libucosii_bsp.a(os_sem.o)
 .debug_abbrev  0x0000000000004f4e      0x247 H:/Real_Time/TP_bsp/\libucosii_bsp.a(os_task.o)
 .debug_abbrev  0x0000000000005195      0x20c H:/Real_Time/TP_bsp/\libucosii_bsp.a(os_time.o)
 .debug_abbrev  0x00000000000053a1      0x1d5 H:/Real_Time/TP_bsp/\libucosii_bsp.a(alt_sys_init.o)
 .debug_abbrev  0x0000000000005576      0x16c H:/Real_Time/TP_bsp/\libucosii_bsp.a(altera_avalon_jtag_uart_fd.o)
 .debug_abbrev  0x00000000000056e2      0x24f H:/Real_Time/TP_bsp/\libucosii_bsp.a(altera_avalon_jtag_uart_init.o)
 .debug_abbrev  0x0000000000005931      0x156 H:/Real_Time/TP_bsp/\libucosii_bsp.a(altera_avalon_jtag_uart_ioctl.o)
 .debug_abbrev  0x0000000000005a87      0x1f8 H:/Real_Time/TP_bsp/\libucosii_bsp.a(altera_avalon_jtag_uart_read.o)
 .debug_abbrev  0x0000000000005c7f      0x1f6 H:/Real_Time/TP_bsp/\libucosii_bsp.a(altera_avalon_jtag_uart_write.o)
 .debug_abbrev  0x0000000000005e75      0x155 H:/Real_Time/TP_bsp/\libucosii_bsp.a(altera_avalon_timer_sc.o)
 .debug_abbrev  0x0000000000005fca      0x240 H:/Real_Time/TP_bsp/\libucosii_bsp.a(altera_modular_adc.o)
 .debug_abbrev  0x000000000000620a      0x162 H:/Real_Time/TP_bsp/\libucosii_bsp.a(alt_alarm_start.o)
 .debug_abbrev  0x000000000000636c       0x42 H:/Real_Time/TP_bsp/\libucosii_bsp.a(alt_dcache_flush_all.o)
 .debug_abbrev  0x00000000000063ae      0x114 H:/Real_Time/TP_bsp/\libucosii_bsp.a(alt_dev_llist_insert.o)
 .debug_abbrev  0x00000000000064c2       0x79 H:/Real_Time/TP_bsp/\libucosii_bsp.a(alt_do_ctors.o)
 .debug_abbrev  0x000000000000653b       0x79 H:/Real_Time/TP_bsp/\libucosii_bsp.a(alt_do_dtors.o)
 .debug_abbrev  0x00000000000065b4       0xf7 H:/Real_Time/TP_bsp/\libucosii_bsp.a(alt_find_dev.o)
 .debug_abbrev  0x00000000000066ab       0x42 H:/Real_Time/TP_bsp/\libucosii_bsp.a(alt_icache_flush_all.o)
 .debug_abbrev  0x00000000000066ed      0x163 H:/Real_Time/TP_bsp/\libucosii_bsp.a(alt_iic.o)
 .debug_abbrev  0x0000000000006850      0x169 H:/Real_Time/TP_bsp/\libucosii_bsp.a(alt_iic_isr_register.o)
 .debug_abbrev  0x00000000000069b9      0x11b H:/Real_Time/TP_bsp/\libucosii_bsp.a(alt_io_redirect.o)
 .debug_abbrev  0x0000000000006ad4       0x12 H:/Real_Time/TP_bsp/\libucosii_bsp.a(alt_irq_entry.o)
 .debug_abbrev  0x0000000000006ae6      0x13a H:/Real_Time/TP_bsp/\libucosii_bsp.a(alt_irq_handler.o)
 .debug_abbrev  0x0000000000006c20       0x40 H:/Real_Time/TP_bsp/\libucosii_bsp.a(alt_irq_vars.o)
 .debug_abbrev  0x0000000000006c60      0x14f H:/Real_Time/TP_bsp/\libucosii_bsp.a(alt_open.o)
 .debug_abbrev  0x0000000000006daf      0x15a H:/Real_Time/TP_bsp/\libucosii_bsp.a(alt_tick.o)
 .debug_abbrev  0x0000000000006f09       0x42 H:/Real_Time/TP_bsp/\libucosii_bsp.a(altera_nios2_gen2_irq.o)
 .debug_abbrev  0x0000000000006f4b       0x14 H:/Real_Time/TP_bsp/\libucosii_bsp.a(os_cpu_a.o)
 .debug_abbrev  0x0000000000006f5f      0x215 H:/Real_Time/TP_bsp/\libucosii_bsp.a(os_cpu_c.o)
 .debug_abbrev  0x0000000000007174       0x12 H:/Real_Time/TP_bsp/\libucosii_bsp.a(alt_exception_entry.o)
 .debug_abbrev  0x0000000000007186       0xf7 H:/Real_Time/TP_bsp/\libucosii_bsp.a(alt_find_file.o)
 .debug_abbrev  0x000000000000727d      0x19b H:/Real_Time/TP_bsp/\libucosii_bsp.a(alt_get_fd.o)
 .debug_abbrev  0x0000000000007418       0xdc H:/Real_Time/TP_bsp/\libucosii_bsp.a(alt_instruction_exception_entry.o)
 .debug_abbrev  0x00000000000074f4       0xaa c:/intelfpga_lite/18.1/nios2eds/bin/gnu/h-x86_64-mingw32/bin/../lib/gcc/nios2-elf/5.3.0/../../../../../H-x86_64-mingw32/nios2-elf/lib/mno-hw-mul\libc.a(lib_a-atexit.o)
 .debug_abbrev  0x000000000000759e      0x1e5 c:/intelfpga_lite/18.1/nios2eds/bin/gnu/h-x86_64-mingw32/bin/../lib/gcc/nios2-elf/5.3.0/../../../../../H-x86_64-mingw32/nios2-elf/lib/mno-hw-mul\libc.a(lib_a-exit.o)
 .debug_abbrev  0x0000000000007783       0x7f c:/intelfpga_lite/18.1/nios2eds/bin/gnu/h-x86_64-mingw32/bin/../lib/gcc/nios2-elf/5.3.0/../../../../../H-x86_64-mingw32/nios2-elf/lib/mno-hw-mul\libc.a(lib_a-memcmp.o)
 .debug_abbrev  0x0000000000007802      0x21e c:/intelfpga_lite/18.1/nios2eds/bin/gnu/h-x86_64-mingw32/bin/../lib/gcc/nios2-elf/5.3.0/../../../../../H-x86_64-mingw32/nios2-elf/lib/mno-hw-mul\libc.a(lib_a-__atexit.o)
 .debug_abbrev  0x0000000000007a20      0x22e c:/intelfpga_lite/18.1/nios2eds/bin/gnu/h-x86_64-mingw32/bin/../lib/gcc/nios2-elf/5.3.0/../../../../../H-x86_64-mingw32/nios2-elf/lib/mno-hw-mul\libc.a(lib_a-__call_atexit.o)
 .debug_abbrev  0x0000000000007c4e       0xe1 H:/Real_Time/TP_bsp/\libucosii_bsp.a(alt_exit.o)

.debug_line     0x0000000000000000     0x9194
 *(.debug_line)
 .debug_line    0x0000000000000000       0x66 H:/Real_Time/TP_bsp//obj/HAL/src/crt0.o
 .debug_line    0x0000000000000066       0xe3 obj/default/hello_ucosii.o
 .debug_line    0x0000000000000149      0x248 c:/intelfpga_lite/18.1/nios2eds/bin/gnu/h-x86_64-mingw32/bin/../lib/gcc/nios2-elf/5.3.0/../../../../../H-x86_64-mingw32/nios2-elf/lib/mno-hw-mul\libc.a(lib_a-puts.o)
 .debug_line    0x0000000000000391      0x16f c:/intelfpga_lite/18.1/nios2eds/bin/gnu/h-x86_64-mingw32/bin/../lib/gcc/nios2-elf/5.3.0/../../../../../H-x86_64-mingw32/nios2-elf/lib/mno-hw-mul\libc.a(lib_a-strlen.o)
 .debug_line    0x0000000000000500      0x375 c:/intelfpga_lite/18.1/nios2eds/bin/gnu/h-x86_64-mingw32/bin/../lib/gcc/nios2-elf/5.3.0/../../../../../H-x86_64-mingw32/nios2-elf/lib/mno-hw-mul\libc.a(lib_a-findfp.o)
 .debug_line    0x0000000000000875      0x346 c:/intelfpga_lite/18.1/nios2eds/bin/gnu/h-x86_64-mingw32/bin/../lib/gcc/nios2-elf/5.3.0/../../../../../H-x86_64-mingw32/nios2-elf/lib/mno-hw-mul\libc.a(lib_a-fvwrite.o)
 .debug_line    0x0000000000000bbb      0x23a c:/intelfpga_lite/18.1/nios2eds/bin/gnu/h-x86_64-mingw32/bin/../lib/gcc/nios2-elf/5.3.0/../../../../../H-x86_64-mingw32/nios2-elf/lib/mno-hw-mul\libc.a(lib_a-fwalk.o)
 .debug_line    0x0000000000000df5      0x160 c:/intelfpga_lite/18.1/nios2eds/bin/gnu/h-x86_64-mingw32/bin/../lib/gcc/nios2-elf/5.3.0/../../../../../H-x86_64-mingw32/nios2-elf/lib/mno-hw-mul\libc.a(lib_a-impure.o)
 .debug_line    0x0000000000000f55      0x3fc c:/intelfpga_lite/18.1/nios2eds/bin/gnu/h-x86_64-mingw32/bin/../lib/gcc/nios2-elf/5.3.0/../../../../../H-x86_64-mingw32/nios2-elf/lib/mno-hw-mul\libc.a(lib_a-mallocr.o)
 .debug_line    0x0000000000001351      0x18d c:/intelfpga_lite/18.1/nios2eds/bin/gnu/h-x86_64-mingw32/bin/../lib/gcc/nios2-elf/5.3.0/../../../../../H-x86_64-mingw32/nios2-elf/lib/mno-hw-mul\libc.a(lib_a-memchr.o)
 .debug_line    0x00000000000014de      0x18c c:/intelfpga_lite/18.1/nios2eds/bin/gnu/h-x86_64-mingw32/bin/../lib/gcc/nios2-elf/5.3.0/../../../../../H-x86_64-mingw32/nios2-elf/lib/mno-hw-mul\libc.a(lib_a-memcpy.o)
 .debug_line    0x000000000000166a      0x18d c:/intelfpga_lite/18.1/nios2eds/bin/gnu/h-x86_64-mingw32/bin/../lib/gcc/nios2-elf/5.3.0/../../../../../H-x86_64-mingw32/nios2-elf/lib/mno-hw-mul\libc.a(lib_a-memmove.o)
 .debug_line    0x00000000000017f7      0x18f c:/intelfpga_lite/18.1/nios2eds/bin/gnu/h-x86_64-mingw32/bin/../lib/gcc/nios2-elf/5.3.0/../../../../../H-x86_64-mingw32/nios2-elf/lib/mno-hw-mul\libc.a(lib_a-memset.o)
 .debug_line    0x0000000000001986      0x2f5 c:/intelfpga_lite/18.1/nios2eds/bin/gnu/h-x86_64-mingw32/bin/../lib/gcc/nios2-elf/5.3.0/../../../../../H-x86_64-mingw32/nios2-elf/lib/mno-hw-mul\libc.a(lib_a-reallocr.o)
 .debug_line    0x0000000000001c7b      0x1e9 c:/intelfpga_lite/18.1/nios2eds/bin/gnu/h-x86_64-mingw32/bin/../lib/gcc/nios2-elf/5.3.0/../../../../../H-x86_64-mingw32/nios2-elf/lib/mno-hw-mul\libc.a(lib_a-sbrkr.o)
 .debug_line    0x0000000000001e64      0x26a c:/intelfpga_lite/18.1/nios2eds/bin/gnu/h-x86_64-mingw32/bin/../lib/gcc/nios2-elf/5.3.0/../../../../../H-x86_64-mingw32/nios2-elf/lib/mno-hw-mul\libc.a(lib_a-stdio.o)
 .debug_line    0x00000000000020ce      0x1f6 c:/intelfpga_lite/18.1/nios2eds/bin/gnu/h-x86_64-mingw32/bin/../lib/gcc/nios2-elf/5.3.0/../../../../../H-x86_64-mingw32/nios2-elf/lib/mno-hw-mul\libc.a(lib_a-writer.o)
 .debug_line    0x00000000000022c4      0x266 c:/intelfpga_lite/18.1/nios2eds/bin/gnu/h-x86_64-mingw32/bin/../lib/gcc/nios2-elf/5.3.0/../../../../../H-x86_64-mingw32/nios2-elf/lib/mno-hw-mul\libc.a(lib_a-wsetup.o)
 .debug_line    0x000000000000252a      0x1f6 c:/intelfpga_lite/18.1/nios2eds/bin/gnu/h-x86_64-mingw32/bin/../lib/gcc/nios2-elf/5.3.0/../../../../../H-x86_64-mingw32/nios2-elf/lib/mno-hw-mul\libc.a(closer.o)
 .debug_line    0x0000000000002720      0x239 c:/intelfpga_lite/18.1/nios2eds/bin/gnu/h-x86_64-mingw32/bin/../lib/gcc/nios2-elf/5.3.0/../../../../../H-x86_64-mingw32/nios2-elf/lib/mno-hw-mul\libc.a(lib_a-fclose.o)
 .debug_line    0x0000000000002959      0x2ea c:/intelfpga_lite/18.1/nios2eds/bin/gnu/h-x86_64-mingw32/bin/../lib/gcc/nios2-elf/5.3.0/../../../../../H-x86_64-mingw32/nios2-elf/lib/mno-hw-mul\libc.a(lib_a-fflush.o)
 .debug_line    0x0000000000002c43      0x2f7 c:/intelfpga_lite/18.1/nios2eds/bin/gnu/h-x86_64-mingw32/bin/../lib/gcc/nios2-elf/5.3.0/../../../../../H-x86_64-mingw32/nios2-elf/lib/mno-hw-mul\libc.a(lib_a-freer.o)
 .debug_line    0x0000000000002f3a       0x5f c:/intelfpga_lite/18.1/nios2eds/bin/gnu/h-x86_64-mingw32/bin/../lib/gcc/nios2-elf/5.3.0/../../../../../H-x86_64-mingw32/nios2-elf/lib/mno-hw-mul\libc.a(lib_a-int_errno.o)
 .debug_line    0x0000000000002f99      0x1f6 c:/intelfpga_lite/18.1/nios2eds/bin/gnu/h-x86_64-mingw32/bin/../lib/gcc/nios2-elf/5.3.0/../../../../../H-x86_64-mingw32/nios2-elf/lib/mno-hw-mul\libc.a(lib_a-lseekr.o)
 .debug_line    0x000000000000318f      0x274 c:/intelfpga_lite/18.1/nios2eds/bin/gnu/h-x86_64-mingw32/bin/../lib/gcc/nios2-elf/5.3.0/../../../../../H-x86_64-mingw32/nios2-elf/lib/mno-hw-mul\libc.a(lib_a-makebuf.o)
 .debug_line    0x0000000000003403      0x1f5 c:/intelfpga_lite/18.1/nios2eds/bin/gnu/h-x86_64-mingw32/bin/../lib/gcc/nios2-elf/5.3.0/../../../../../H-x86_64-mingw32/nios2-elf/lib/mno-hw-mul\libc.a(lib_a-readr.o)
 .debug_line    0x00000000000035f8      0x1ff c:/intelfpga_lite/18.1/nios2eds/bin/gnu/h-x86_64-mingw32/bin/../lib/gcc/nios2-elf/5.3.0/../../../../../H-x86_64-mingw32/nios2-elf/lib/mno-hw-mul\libc.a(lib_a-fstatr.o)
 .debug_line    0x00000000000037f7      0x1f7 c:/intelfpga_lite/18.1/nios2eds/bin/gnu/h-x86_64-mingw32/bin/../lib/gcc/nios2-elf/5.3.0/../../../../../H-x86_64-mingw32/nios2-elf/lib/mno-hw-mul\libc.a(lib_a-isattyr.o)
 .debug_line    0x00000000000039ee      0x105 c:/intelfpga_lite/18.1/nios2eds/bin/gnu/h-x86_64-mingw32/bin/../lib/gcc/nios2-elf/5.3.0/mno-hw-mul\libgcc.a(lib2-divmod.o)
 .debug_line    0x0000000000003af3       0x80 c:/intelfpga_lite/18.1/nios2eds/bin/gnu/h-x86_64-mingw32/bin/../lib/gcc/nios2-elf/5.3.0/mno-hw-mul\libgcc.a(lib2-mul.o)
 .debug_line    0x0000000000003b73      0x174 H:/Real_Time/TP_bsp/\libucosii_bsp.a(alt_close.o)
 .debug_line    0x0000000000003ce7      0x13c H:/Real_Time/TP_bsp/\libucosii_bsp.a(alt_dev.o)
 .debug_line    0x0000000000003e23       0x51 H:/Real_Time/TP_bsp/\libucosii_bsp.a(alt_errno.o)
 .debug_line    0x0000000000003e74      0x16d H:/Real_Time/TP_bsp/\libucosii_bsp.a(alt_fstat.o)
 .debug_line    0x0000000000003fe1      0x171 H:/Real_Time/TP_bsp/\libucosii_bsp.a(alt_isatty.o)
 .debug_line    0x0000000000004152       0x8e H:/Real_Time/TP_bsp/\libucosii_bsp.a(alt_load.o)
 .debug_line    0x00000000000041e0      0x172 H:/Real_Time/TP_bsp/\libucosii_bsp.a(alt_lseek.o)
 .debug_line    0x0000000000004352      0x12f H:/Real_Time/TP_bsp/\libucosii_bsp.a(alt_main.o)
 .debug_line    0x0000000000004481      0x1eb H:/Real_Time/TP_bsp/\libucosii_bsp.a(alt_read.o)
 .debug_line    0x000000000000466c       0xbf H:/Real_Time/TP_bsp/\libucosii_bsp.a(alt_release_fd.o)
 .debug_line    0x000000000000472b       0xf3 H:/Real_Time/TP_bsp/\libucosii_bsp.a(alt_sbrk.o)
 .debug_line    0x000000000000481e      0x1ea H:/Real_Time/TP_bsp/\libucosii_bsp.a(alt_write.o)
 .debug_line    0x0000000000004a08      0x1aa H:/Real_Time/TP_bsp/\libucosii_bsp.a(alt_env_lock.o)
 .debug_line    0x0000000000004bb2      0x20e H:/Real_Time/TP_bsp/\libucosii_bsp.a(alt_malloc_lock.o)
 .debug_line    0x0000000000004dc0      0x68b H:/Real_Time/TP_bsp/\libucosii_bsp.a(os_core.o)
 .debug_line    0x000000000000544b       0xd2 H:/Real_Time/TP_bsp/\libucosii_bsp.a(os_dbg.o)
 .debug_line    0x000000000000551d      0x4ff H:/Real_Time/TP_bsp/\libucosii_bsp.a(os_flag.o)
 .debug_line    0x0000000000005a1c      0x23f H:/Real_Time/TP_bsp/\libucosii_bsp.a(os_mem.o)
 .debug_line    0x0000000000005c5b      0x3fb H:/Real_Time/TP_bsp/\libucosii_bsp.a(os_q.o)
 .debug_line    0x0000000000006056      0x2e0 H:/Real_Time/TP_bsp/\libucosii_bsp.a(os_sem.o)
 .debug_line    0x0000000000006336      0x52d H:/Real_Time/TP_bsp/\libucosii_bsp.a(os_task.o)
 .debug_line    0x0000000000006863      0x1a8 H:/Real_Time/TP_bsp/\libucosii_bsp.a(os_time.o)
 .debug_line    0x0000000000006a0b      0x191 H:/Real_Time/TP_bsp/\libucosii_bsp.a(alt_sys_init.o)
 .debug_line    0x0000000000006b9c      0x155 H:/Real_Time/TP_bsp/\libucosii_bsp.a(altera_avalon_jtag_uart_fd.o)
 .debug_line    0x0000000000006cf1      0x225 H:/Real_Time/TP_bsp/\libucosii_bsp.a(altera_avalon_jtag_uart_init.o)
 .debug_line    0x0000000000006f16      0x157 H:/Real_Time/TP_bsp/\libucosii_bsp.a(altera_avalon_jtag_uart_ioctl.o)
 .debug_line    0x000000000000706d      0x1db H:/Real_Time/TP_bsp/\libucosii_bsp.a(altera_avalon_jtag_uart_read.o)
 .debug_line    0x0000000000007248      0x1dc H:/Real_Time/TP_bsp/\libucosii_bsp.a(altera_avalon_jtag_uart_write.o)
 .debug_line    0x0000000000007424       0xfd H:/Real_Time/TP_bsp/\libucosii_bsp.a(altera_avalon_timer_sc.o)
 .debug_line    0x0000000000007521      0x252 H:/Real_Time/TP_bsp/\libucosii_bsp.a(altera_modular_adc.o)
 .debug_line    0x0000000000007773       0xf9 H:/Real_Time/TP_bsp/\libucosii_bsp.a(alt_alarm_start.o)
 .debug_line    0x000000000000786c       0x51 H:/Real_Time/TP_bsp/\libucosii_bsp.a(alt_dcache_flush_all.o)
 .debug_line    0x00000000000078bd       0xcf H:/Real_Time/TP_bsp/\libucosii_bsp.a(alt_dev_llist_insert.o)
 .debug_line    0x000000000000798c       0x59 H:/Real_Time/TP_bsp/\libucosii_bsp.a(alt_do_ctors.o)
 .debug_line    0x00000000000079e5       0x59 H:/Real_Time/TP_bsp/\libucosii_bsp.a(alt_do_dtors.o)
 .debug_line    0x0000000000007a3e       0xc4 H:/Real_Time/TP_bsp/\libucosii_bsp.a(alt_find_dev.o)
 .debug_line    0x0000000000007b02       0x4f H:/Real_Time/TP_bsp/\libucosii_bsp.a(alt_icache_flush_all.o)
 .debug_line    0x0000000000007b51       0xeb H:/Real_Time/TP_bsp/\libucosii_bsp.a(alt_iic.o)
 .debug_line    0x0000000000007c3c       0xdb H:/Real_Time/TP_bsp/\libucosii_bsp.a(alt_iic_isr_register.o)
 .debug_line    0x0000000000007d17      0x144 H:/Real_Time/TP_bsp/\libucosii_bsp.a(alt_io_redirect.o)
 .debug_line    0x0000000000007e5b       0x6b H:/Real_Time/TP_bsp/\libucosii_bsp.a(alt_irq_entry.o)
 .debug_line    0x0000000000007ec6       0xc8 H:/Real_Time/TP_bsp/\libucosii_bsp.a(alt_irq_handler.o)
 .debug_line    0x0000000000007f8e       0x50 H:/Real_Time/TP_bsp/\libucosii_bsp.a(alt_irq_vars.o)
 .debug_line    0x0000000000007fde      0x13a H:/Real_Time/TP_bsp/\libucosii_bsp.a(alt_open.o)
 .debug_line    0x0000000000008118       0xff H:/Real_Time/TP_bsp/\libucosii_bsp.a(alt_tick.o)
 .debug_line    0x0000000000008217       0x51 H:/Real_Time/TP_bsp/\libucosii_bsp.a(altera_nios2_gen2_irq.o)
 .debug_line    0x0000000000008268       0x86 H:/Real_Time/TP_bsp/\libucosii_bsp.a(os_cpu_a.o)
 .debug_line    0x00000000000082ee      0x1b2 H:/Real_Time/TP_bsp/\libucosii_bsp.a(os_cpu_c.o)
 .debug_line    0x00000000000084a0       0xb3 H:/Real_Time/TP_bsp/\libucosii_bsp.a(alt_exception_entry.o)
 .debug_line    0x0000000000008553       0xe0 H:/Real_Time/TP_bsp/\libucosii_bsp.a(alt_find_file.o)
 .debug_line    0x0000000000008633      0x128 H:/Real_Time/TP_bsp/\libucosii_bsp.a(alt_get_fd.o)
 .debug_line    0x000000000000875b       0xb9 H:/Real_Time/TP_bsp/\libucosii_bsp.a(alt_instruction_exception_entry.o)
 .debug_line    0x0000000000008814       0xe7 c:/intelfpga_lite/18.1/nios2eds/bin/gnu/h-x86_64-mingw32/bin/../lib/gcc/nios2-elf/5.3.0/../../../../../H-x86_64-mingw32/nios2-elf/lib/mno-hw-mul\libc.a(lib_a-atexit.o)
 .debug_line    0x00000000000088fb      0x1fc c:/intelfpga_lite/18.1/nios2eds/bin/gnu/h-x86_64-mingw32/bin/../lib/gcc/nios2-elf/5.3.0/../../../../../H-x86_64-mingw32/nios2-elf/lib/mno-hw-mul\libc.a(lib_a-exit.o)
 .debug_line    0x0000000000008af7      0x176 c:/intelfpga_lite/18.1/nios2eds/bin/gnu/h-x86_64-mingw32/bin/../lib/gcc/nios2-elf/5.3.0/../../../../../H-x86_64-mingw32/nios2-elf/lib/mno-hw-mul\libc.a(lib_a-memcmp.o)
 .debug_line    0x0000000000008c6d      0x21f c:/intelfpga_lite/18.1/nios2eds/bin/gnu/h-x86_64-mingw32/bin/../lib/gcc/nios2-elf/5.3.0/../../../../../H-x86_64-mingw32/nios2-elf/lib/mno-hw-mul\libc.a(lib_a-__atexit.o)
 .debug_line    0x0000000000008e8c      0x23a c:/intelfpga_lite/18.1/nios2eds/bin/gnu/h-x86_64-mingw32/bin/../lib/gcc/nios2-elf/5.3.0/../../../../../H-x86_64-mingw32/nios2-elf/lib/mno-hw-mul\libc.a(lib_a-__call_atexit.o)
 .debug_line    0x00000000000090c6       0xce H:/Real_Time/TP_bsp/\libucosii_bsp.a(alt_exit.o)

.debug_frame    0x0000000000000000     0x2840
 *(.debug_frame)
 .debug_frame   0x0000000000000000       0x70 obj/default/hello_ucosii.o
 .debug_frame   0x0000000000000070       0x48 c:/intelfpga_lite/18.1/nios2eds/bin/gnu/h-x86_64-mingw32/bin/../lib/gcc/nios2-elf/5.3.0/../../../../../H-x86_64-mingw32/nios2-elf/lib/mno-hw-mul\libc.a(lib_a-puts.o)
 .debug_frame   0x00000000000000b8       0x20 c:/intelfpga_lite/18.1/nios2eds/bin/gnu/h-x86_64-mingw32/bin/../lib/gcc/nios2-elf/5.3.0/../../../../../H-x86_64-mingw32/nios2-elf/lib/mno-hw-mul\libc.a(lib_a-strlen.o)
 .debug_frame   0x00000000000000d8      0x160 c:/intelfpga_lite/18.1/nios2eds/bin/gnu/h-x86_64-mingw32/bin/../lib/gcc/nios2-elf/5.3.0/../../../../../H-x86_64-mingw32/nios2-elf/lib/mno-hw-mul\libc.a(lib_a-findfp.o)
 .debug_frame   0x0000000000000238       0x78 c:/intelfpga_lite/18.1/nios2eds/bin/gnu/h-x86_64-mingw32/bin/../lib/gcc/nios2-elf/5.3.0/../../../../../H-x86_64-mingw32/nios2-elf/lib/mno-hw-mul\libc.a(lib_a-fvwrite.o)
 .debug_frame   0x00000000000002b0       0x90 c:/intelfpga_lite/18.1/nios2eds/bin/gnu/h-x86_64-mingw32/bin/../lib/gcc/nios2-elf/5.3.0/../../../../../H-x86_64-mingw32/nios2-elf/lib/mno-hw-mul\libc.a(lib_a-fwalk.o)
 .debug_frame   0x0000000000000340       0x54 c:/intelfpga_lite/18.1/nios2eds/bin/gnu/h-x86_64-mingw32/bin/../lib/gcc/nios2-elf/5.3.0/../../../../../H-x86_64-mingw32/nios2-elf/lib/mno-hw-mul\libc.a(lib_a-mallocr.o)
 .debug_frame   0x0000000000000394       0x20 c:/intelfpga_lite/18.1/nios2eds/bin/gnu/h-x86_64-mingw32/bin/../lib/gcc/nios2-elf/5.3.0/../../../../../H-x86_64-mingw32/nios2-elf/lib/mno-hw-mul\libc.a(lib_a-memchr.o)
 .debug_frame   0x00000000000003b4       0x38 c:/intelfpga_lite/18.1/nios2eds/bin/gnu/h-x86_64-mingw32/bin/../lib/gcc/nios2-elf/5.3.0/../../../../../H-x86_64-mingw32/nios2-elf/lib/mno-hw-mul\libc.a(lib_a-memcpy.o)
 .debug_frame   0x00000000000003ec       0x20 c:/intelfpga_lite/18.1/nios2eds/bin/gnu/h-x86_64-mingw32/bin/../lib/gcc/nios2-elf/5.3.0/../../../../../H-x86_64-mingw32/nios2-elf/lib/mno-hw-mul\libc.a(lib_a-memmove.o)
 .debug_frame   0x000000000000040c       0x20 c:/intelfpga_lite/18.1/nios2eds/bin/gnu/h-x86_64-mingw32/bin/../lib/gcc/nios2-elf/5.3.0/../../../../../H-x86_64-mingw32/nios2-elf/lib/mno-hw-mul\libc.a(lib_a-memset.o)
 .debug_frame   0x000000000000042c       0x70 c:/intelfpga_lite/18.1/nios2eds/bin/gnu/h-x86_64-mingw32/bin/../lib/gcc/nios2-elf/5.3.0/../../../../../H-x86_64-mingw32/nios2-elf/lib/mno-hw-mul\libc.a(lib_a-reallocr.o)
 .debug_frame   0x000000000000049c       0x38 c:/intelfpga_lite/18.1/nios2eds/bin/gnu/h-x86_64-mingw32/bin/../lib/gcc/nios2-elf/5.3.0/../../../../../H-x86_64-mingw32/nios2-elf/lib/mno-hw-mul\libc.a(lib_a-sbrkr.o)
 .debug_frame   0x00000000000004d4       0xb4 c:/intelfpga_lite/18.1/nios2eds/bin/gnu/h-x86_64-mingw32/bin/../lib/gcc/nios2-elf/5.3.0/../../../../../H-x86_64-mingw32/nios2-elf/lib/mno-hw-mul\libc.a(lib_a-stdio.o)
 .debug_frame   0x0000000000000588       0x38 c:/intelfpga_lite/18.1/nios2eds/bin/gnu/h-x86_64-mingw32/bin/../lib/gcc/nios2-elf/5.3.0/../../../../../H-x86_64-mingw32/nios2-elf/lib/mno-hw-mul\libc.a(lib_a-writer.o)
 .debug_frame   0x00000000000005c0       0x38 c:/intelfpga_lite/18.1/nios2eds/bin/gnu/h-x86_64-mingw32/bin/../lib/gcc/nios2-elf/5.3.0/../../../../../H-x86_64-mingw32/nios2-elf/lib/mno-hw-mul\libc.a(lib_a-wsetup.o)
 .debug_frame   0x00000000000005f8       0x38 c:/intelfpga_lite/18.1/nios2eds/bin/gnu/h-x86_64-mingw32/bin/../lib/gcc/nios2-elf/5.3.0/../../../../../H-x86_64-mingw32/nios2-elf/lib/mno-hw-mul\libc.a(closer.o)
 .debug_frame   0x0000000000000630       0x54 c:/intelfpga_lite/18.1/nios2eds/bin/gnu/h-x86_64-mingw32/bin/../lib/gcc/nios2-elf/5.3.0/../../../../../H-x86_64-mingw32/nios2-elf/lib/mno-hw-mul\libc.a(lib_a-fclose.o)
 .debug_frame   0x0000000000000684       0x7c c:/intelfpga_lite/18.1/nios2eds/bin/gnu/h-x86_64-mingw32/bin/../lib/gcc/nios2-elf/5.3.0/../../../../../H-x86_64-mingw32/nios2-elf/lib/mno-hw-mul\libc.a(lib_a-fflush.o)
 .debug_frame   0x0000000000000700       0x70 c:/intelfpga_lite/18.1/nios2eds/bin/gnu/h-x86_64-mingw32/bin/../lib/gcc/nios2-elf/5.3.0/../../../../../H-x86_64-mingw32/nios2-elf/lib/mno-hw-mul\libc.a(lib_a-freer.o)
 .debug_frame   0x0000000000000770       0x38 c:/intelfpga_lite/18.1/nios2eds/bin/gnu/h-x86_64-mingw32/bin/../lib/gcc/nios2-elf/5.3.0/../../../../../H-x86_64-mingw32/nios2-elf/lib/mno-hw-mul\libc.a(lib_a-lseekr.o)
 .debug_frame   0x00000000000007a8       0x4c c:/intelfpga_lite/18.1/nios2eds/bin/gnu/h-x86_64-mingw32/bin/../lib/gcc/nios2-elf/5.3.0/../../../../../H-x86_64-mingw32/nios2-elf/lib/mno-hw-mul\libc.a(lib_a-makebuf.o)
 .debug_frame   0x00000000000007f4       0x38 c:/intelfpga_lite/18.1/nios2eds/bin/gnu/h-x86_64-mingw32/bin/../lib/gcc/nios2-elf/5.3.0/../../../../../H-x86_64-mingw32/nios2-elf/lib/mno-hw-mul\libc.a(lib_a-readr.o)
 .debug_frame   0x000000000000082c       0x38 c:/intelfpga_lite/18.1/nios2eds/bin/gnu/h-x86_64-mingw32/bin/../lib/gcc/nios2-elf/5.3.0/../../../../../H-x86_64-mingw32/nios2-elf/lib/mno-hw-mul\libc.a(lib_a-fstatr.o)
 .debug_frame   0x0000000000000864       0x38 c:/intelfpga_lite/18.1/nios2eds/bin/gnu/h-x86_64-mingw32/bin/../lib/gcc/nios2-elf/5.3.0/../../../../../H-x86_64-mingw32/nios2-elf/lib/mno-hw-mul\libc.a(lib_a-isattyr.o)
 .debug_frame   0x000000000000089c       0x50 c:/intelfpga_lite/18.1/nios2eds/bin/gnu/h-x86_64-mingw32/bin/../lib/gcc/nios2-elf/5.3.0/mno-hw-mul\libgcc.a(lib2-divmod.o)
 .debug_frame   0x00000000000008ec       0x20 c:/intelfpga_lite/18.1/nios2eds/bin/gnu/h-x86_64-mingw32/bin/../lib/gcc/nios2-elf/5.3.0/mno-hw-mul\libgcc.a(lib2-mul.o)
 .debug_frame   0x000000000000090c       0x60 H:/Real_Time/TP_bsp/\libucosii_bsp.a(alt_close.o)
 .debug_frame   0x000000000000096c       0x34 H:/Real_Time/TP_bsp/\libucosii_bsp.a(alt_dev.o)
 .debug_frame   0x00000000000009a0       0x60 H:/Real_Time/TP_bsp/\libucosii_bsp.a(alt_fstat.o)
 .debug_frame   0x0000000000000a00       0x60 H:/Real_Time/TP_bsp/\libucosii_bsp.a(alt_isatty.o)
 .debug_frame   0x0000000000000a60       0x5c H:/Real_Time/TP_bsp/\libucosii_bsp.a(alt_load.o)
 .debug_frame   0x0000000000000abc       0x60 H:/Real_Time/TP_bsp/\libucosii_bsp.a(alt_lseek.o)
 .debug_frame   0x0000000000000b1c       0x2c H:/Real_Time/TP_bsp/\libucosii_bsp.a(alt_main.o)
 .debug_frame   0x0000000000000b48       0x60 H:/Real_Time/TP_bsp/\libucosii_bsp.a(alt_read.o)
 .debug_frame   0x0000000000000ba8       0x3c H:/Real_Time/TP_bsp/\libucosii_bsp.a(alt_release_fd.o)
 .debug_frame   0x0000000000000be4       0x34 H:/Real_Time/TP_bsp/\libucosii_bsp.a(alt_sbrk.o)
 .debug_frame   0x0000000000000c18       0x60 H:/Real_Time/TP_bsp/\libucosii_bsp.a(alt_write.o)
 .debug_frame   0x0000000000000c78       0x60 H:/Real_Time/TP_bsp/\libucosii_bsp.a(alt_env_lock.o)
 .debug_frame   0x0000000000000cd8       0x64 H:/Real_Time/TP_bsp/\libucosii_bsp.a(alt_malloc_lock.o)
 .debug_frame   0x0000000000000d3c      0x530 H:/Real_Time/TP_bsp/\libucosii_bsp.a(os_core.o)
 .debug_frame   0x000000000000126c       0x34 H:/Real_Time/TP_bsp/\libucosii_bsp.a(os_dbg.o)
 .debug_frame   0x00000000000012a0      0x200 H:/Real_Time/TP_bsp/\libucosii_bsp.a(os_flag.o)
 .debug_frame   0x00000000000014a0      0x118 H:/Real_Time/TP_bsp/\libucosii_bsp.a(os_mem.o)
 .debug_frame   0x00000000000015b8      0x1bc H:/Real_Time/TP_bsp/\libucosii_bsp.a(os_q.o)
 .debug_frame   0x0000000000001774      0x144 H:/Real_Time/TP_bsp/\libucosii_bsp.a(os_sem.o)
 .debug_frame   0x00000000000018b8      0x1e4 H:/Real_Time/TP_bsp/\libucosii_bsp.a(os_task.o)
 .debug_frame   0x0000000000001a9c       0xd8 H:/Real_Time/TP_bsp/\libucosii_bsp.a(os_time.o)
 .debug_frame   0x0000000000001b74       0x88 H:/Real_Time/TP_bsp/\libucosii_bsp.a(alt_sys_init.o)
 .debug_frame   0x0000000000001bfc       0xb0 H:/Real_Time/TP_bsp/\libucosii_bsp.a(altera_avalon_jtag_uart_fd.o)
 .debug_frame   0x0000000000001cac       0xac H:/Real_Time/TP_bsp/\libucosii_bsp.a(altera_avalon_jtag_uart_init.o)
 .debug_frame   0x0000000000001d58       0x34 H:/Real_Time/TP_bsp/\libucosii_bsp.a(altera_avalon_jtag_uart_ioctl.o)
 .debug_frame   0x0000000000001d8c       0x38 H:/Real_Time/TP_bsp/\libucosii_bsp.a(altera_avalon_jtag_uart_read.o)
 .debug_frame   0x0000000000001dc4       0x38 H:/Real_Time/TP_bsp/\libucosii_bsp.a(altera_avalon_jtag_uart_write.o)
 .debug_frame   0x0000000000001dfc       0x60 H:/Real_Time/TP_bsp/\libucosii_bsp.a(altera_avalon_timer_sc.o)
 .debug_frame   0x0000000000001e5c      0x240 H:/Real_Time/TP_bsp/\libucosii_bsp.a(altera_modular_adc.o)
 .debug_frame   0x000000000000209c       0x34 H:/Real_Time/TP_bsp/\libucosii_bsp.a(alt_alarm_start.o)
 .debug_frame   0x00000000000020d0       0x34 H:/Real_Time/TP_bsp/\libucosii_bsp.a(alt_dcache_flush_all.o)
 .debug_frame   0x0000000000002104       0x60 H:/Real_Time/TP_bsp/\libucosii_bsp.a(alt_dev_llist_insert.o)
 .debug_frame   0x0000000000002164       0x38 H:/Real_Time/TP_bsp/\libucosii_bsp.a(alt_do_ctors.o)
 .debug_frame   0x000000000000219c       0x38 H:/Real_Time/TP_bsp/\libucosii_bsp.a(alt_do_dtors.o)
 .debug_frame   0x00000000000021d4       0x38 H:/Real_Time/TP_bsp/\libucosii_bsp.a(alt_find_dev.o)
 .debug_frame   0x000000000000220c       0x34 H:/Real_Time/TP_bsp/\libucosii_bsp.a(alt_icache_flush_all.o)
 .debug_frame   0x0000000000002240       0xa4 H:/Real_Time/TP_bsp/\libucosii_bsp.a(alt_iic.o)
 .debug_frame   0x00000000000022e4       0x38 H:/Real_Time/TP_bsp/\libucosii_bsp.a(alt_iic_isr_register.o)
 .debug_frame   0x000000000000231c       0x64 H:/Real_Time/TP_bsp/\libucosii_bsp.a(alt_io_redirect.o)
 .debug_frame   0x0000000000002380       0x38 H:/Real_Time/TP_bsp/\libucosii_bsp.a(alt_irq_handler.o)
 .debug_frame   0x00000000000023b8       0x8c H:/Real_Time/TP_bsp/\libucosii_bsp.a(alt_open.o)
 .debug_frame   0x0000000000002444       0x5c H:/Real_Time/TP_bsp/\libucosii_bsp.a(alt_tick.o)
 .debug_frame   0x00000000000024a0       0x34 H:/Real_Time/TP_bsp/\libucosii_bsp.a(altera_nios2_gen2_irq.o)
 .debug_frame   0x00000000000024d4      0x17c H:/Real_Time/TP_bsp/\libucosii_bsp.a(os_cpu_c.o)
 .debug_frame   0x0000000000002650       0x38 H:/Real_Time/TP_bsp/\libucosii_bsp.a(alt_find_file.o)
 .debug_frame   0x0000000000002688       0x3c H:/Real_Time/TP_bsp/\libucosii_bsp.a(alt_get_fd.o)
 .debug_frame   0x00000000000026c4       0x5c H:/Real_Time/TP_bsp/\libucosii_bsp.a(alt_instruction_exception_entry.o)
 .debug_frame   0x0000000000002720       0x20 c:/intelfpga_lite/18.1/nios2eds/bin/gnu/h-x86_64-mingw32/bin/../lib/gcc/nios2-elf/5.3.0/../../../../../H-x86_64-mingw32/nios2-elf/lib/mno-hw-mul\libc.a(lib_a-atexit.o)
 .debug_frame   0x0000000000002740       0x28 c:/intelfpga_lite/18.1/nios2eds/bin/gnu/h-x86_64-mingw32/bin/../lib/gcc/nios2-elf/5.3.0/../../../../../H-x86_64-mingw32/nios2-elf/lib/mno-hw-mul\libc.a(lib_a-exit.o)
 .debug_frame   0x0000000000002768       0x20 c:/intelfpga_lite/18.1/nios2eds/bin/gnu/h-x86_64-mingw32/bin/../lib/gcc/nios2-elf/5.3.0/../../../../../H-x86_64-mingw32/nios2-elf/lib/mno-hw-mul\libc.a(lib_a-memcmp.o)
 .debug_frame   0x0000000000002788       0x38 c:/intelfpga_lite/18.1/nios2eds/bin/gnu/h-x86_64-mingw32/bin/../lib/gcc/nios2-elf/5.3.0/../../../../../H-x86_64-mingw32/nios2-elf/lib/mno-hw-mul\libc.a(lib_a-__atexit.o)
 .debug_frame   0x00000000000027c0       0x54 c:/intelfpga_lite/18.1/nios2eds/bin/gnu/h-x86_64-mingw32/bin/../lib/gcc/nios2-elf/5.3.0/../../../../../H-x86_64-mingw32/nios2-elf/lib/mno-hw-mul\libc.a(lib_a-__call_atexit.o)
 .debug_frame   0x0000000000002814       0x2c H:/Real_Time/TP_bsp/\libucosii_bsp.a(alt_exit.o)

.debug_str      0x0000000000000000     0x3a91
 *(.debug_str)
 .debug_str     0x0000000000000000      0x123 obj/default/hello_ucosii.o
                                        0x168 (size before relaxing)
 .debug_str     0x0000000000000123      0x4f4 c:/intelfpga_lite/18.1/nios2eds/bin/gnu/h-x86_64-mingw32/bin/../lib/gcc/nios2-elf/5.3.0/../../../../../H-x86_64-mingw32/nios2-elf/lib/mno-hw-mul\libc.a(lib_a-puts.o)
                                        0x61c (size before relaxing)
 .debug_str     0x0000000000000617       0xd9 c:/intelfpga_lite/18.1/nios2eds/bin/gnu/h-x86_64-mingw32/bin/../lib/gcc/nios2-elf/5.3.0/../../../../../H-x86_64-mingw32/nios2-elf/lib/mno-hw-mul\libc.a(lib_a-strlen.o)
                                        0x1f7 (size before relaxing)
 .debug_str     0x00000000000006f0      0x146 c:/intelfpga_lite/18.1/nios2eds/bin/gnu/h-x86_64-mingw32/bin/../lib/gcc/nios2-elf/5.3.0/../../../../../H-x86_64-mingw32/nios2-elf/lib/mno-hw-mul\libc.a(lib_a-findfp.o)
                                        0x6cb (size before relaxing)
 .debug_str     0x0000000000000836       0x9a c:/intelfpga_lite/18.1/nios2eds/bin/gnu/h-x86_64-mingw32/bin/../lib/gcc/nios2-elf/5.3.0/../../../../../H-x86_64-mingw32/nios2-elf/lib/mno-hw-mul\libc.a(lib_a-fvwrite.o)
                                        0x647 (size before relaxing)
 .debug_str     0x00000000000008d0       0x4a c:/intelfpga_lite/18.1/nios2eds/bin/gnu/h-x86_64-mingw32/bin/../lib/gcc/nios2-elf/5.3.0/../../../../../H-x86_64-mingw32/nios2-elf/lib/mno-hw-mul\libc.a(lib_a-fwalk.o)
                                        0x5ba (size before relaxing)
 .debug_str     0x000000000000091a       0xd6 c:/intelfpga_lite/18.1/nios2eds/bin/gnu/h-x86_64-mingw32/bin/../lib/gcc/nios2-elf/5.3.0/../../../../../H-x86_64-mingw32/nios2-elf/lib/mno-hw-mul\libc.a(lib_a-impure.o)
                                        0x5b5 (size before relaxing)
 .debug_str     0x00000000000009f0      0x2bb c:/intelfpga_lite/18.1/nios2eds/bin/gnu/h-x86_64-mingw32/bin/../lib/gcc/nios2-elf/5.3.0/../../../../../H-x86_64-mingw32/nios2-elf/lib/mno-hw-mul\libc.a(lib_a-mallocr.o)
                                        0x7ba (size before relaxing)
 .debug_str     0x0000000000000cab       0x4b c:/intelfpga_lite/18.1/nios2eds/bin/gnu/h-x86_64-mingw32/bin/../lib/gcc/nios2-elf/5.3.0/../../../../../H-x86_64-mingw32/nios2-elf/lib/mno-hw-mul\libc.a(lib_a-memchr.o)
                                        0x1fe (size before relaxing)
 .debug_str     0x0000000000000cf6       0x64 c:/intelfpga_lite/18.1/nios2eds/bin/gnu/h-x86_64-mingw32/bin/../lib/gcc/nios2-elf/5.3.0/../../../../../H-x86_64-mingw32/nios2-elf/lib/mno-hw-mul\libc.a(lib_a-memcpy.o)
                                        0x20b (size before relaxing)
 .debug_str     0x0000000000000d5a       0x47 c:/intelfpga_lite/18.1/nios2eds/bin/gnu/h-x86_64-mingw32/bin/../lib/gcc/nios2-elf/5.3.0/../../../../../H-x86_64-mingw32/nios2-elf/lib/mno-hw-mul\libc.a(lib_a-memmove.o)
                                        0x217 (size before relaxing)
 .debug_str     0x0000000000000da1       0x44 c:/intelfpga_lite/18.1/nios2eds/bin/gnu/h-x86_64-mingw32/bin/../lib/gcc/nios2-elf/5.3.0/../../../../../H-x86_64-mingw32/nios2-elf/lib/mno-hw-mul\libc.a(lib_a-memset.o)
                                        0x1f8 (size before relaxing)
 .debug_str     0x0000000000000de5       0x49 c:/intelfpga_lite/18.1/nios2eds/bin/gnu/h-x86_64-mingw32/bin/../lib/gcc/nios2-elf/5.3.0/../../../../../H-x86_64-mingw32/nios2-elf/lib/mno-hw-mul\libc.a(lib_a-reallocr.o)
                                        0x696 (size before relaxing)
 .debug_str     0x0000000000000e2e       0x4f c:/intelfpga_lite/18.1/nios2eds/bin/gnu/h-x86_64-mingw32/bin/../lib/gcc/nios2-elf/5.3.0/../../../../../H-x86_64-mingw32/nios2-elf/lib/mno-hw-mul\libc.a(lib_a-sbrkr.o)
                                        0x5ab (size before relaxing)
 .debug_str     0x0000000000000e7d       0x9b c:/intelfpga_lite/18.1/nios2eds/bin/gnu/h-x86_64-mingw32/bin/../lib/gcc/nios2-elf/5.3.0/../../../../../H-x86_64-mingw32/nios2-elf/lib/mno-hw-mul\libc.a(lib_a-stdio.o)
                                        0x609 (size before relaxing)
 .debug_str     0x0000000000000f18       0x3c c:/intelfpga_lite/18.1/nios2eds/bin/gnu/h-x86_64-mingw32/bin/../lib/gcc/nios2-elf/5.3.0/../../../../../H-x86_64-mingw32/nios2-elf/lib/mno-hw-mul\libc.a(lib_a-writer.o)
                                        0x5af (size before relaxing)
 .debug_str     0x0000000000000f54       0x49 c:/intelfpga_lite/18.1/nios2eds/bin/gnu/h-x86_64-mingw32/bin/../lib/gcc/nios2-elf/5.3.0/../../../../../H-x86_64-mingw32/nios2-elf/lib/mno-hw-mul\libc.a(lib_a-wsetup.o)
                                        0x5d4 (size before relaxing)
 .debug_str     0x0000000000000f9d       0x3c c:/intelfpga_lite/18.1/nios2eds/bin/gnu/h-x86_64-mingw32/bin/../lib/gcc/nios2-elf/5.3.0/../../../../../H-x86_64-mingw32/nios2-elf/lib/mno-hw-mul\libc.a(closer.o)
                                        0x59f (size before relaxing)
 .debug_str     0x0000000000000fd9       0x5d c:/intelfpga_lite/18.1/nios2eds/bin/gnu/h-x86_64-mingw32/bin/../lib/gcc/nios2-elf/5.3.0/../../../../../H-x86_64-mingw32/nios2-elf/lib/mno-hw-mul\libc.a(lib_a-fclose.o)
                                        0x602 (size before relaxing)
 .debug_str     0x0000000000001036       0x54 c:/intelfpga_lite/18.1/nios2eds/bin/gnu/h-x86_64-mingw32/bin/../lib/gcc/nios2-elf/5.3.0/../../../../../H-x86_64-mingw32/nios2-elf/lib/mno-hw-mul\libc.a(lib_a-fflush.o)
                                        0x615 (size before relaxing)
 .debug_str     0x000000000000108a       0x34 c:/intelfpga_lite/18.1/nios2eds/bin/gnu/h-x86_64-mingw32/bin/../lib/gcc/nios2-elf/5.3.0/../../../../../H-x86_64-mingw32/nios2-elf/lib/mno-hw-mul\libc.a(lib_a-freer.o)
                                        0x704 (size before relaxing)
 .debug_str     0x00000000000010be       0x3f c:/intelfpga_lite/18.1/nios2eds/bin/gnu/h-x86_64-mingw32/bin/../lib/gcc/nios2-elf/5.3.0/../../../../../H-x86_64-mingw32/nios2-elf/lib/mno-hw-mul\libc.a(lib_a-int_errno.o)
                                        0x1dd (size before relaxing)
 .debug_str     0x00000000000010fd       0x42 c:/intelfpga_lite/18.1/nios2eds/bin/gnu/h-x86_64-mingw32/bin/../lib/gcc/nios2-elf/5.3.0/../../../../../H-x86_64-mingw32/nios2-elf/lib/mno-hw-mul\libc.a(lib_a-lseekr.o)
                                        0x5a6 (size before relaxing)
 .debug_str     0x000000000000113f      0x124 c:/intelfpga_lite/18.1/nios2eds/bin/gnu/h-x86_64-mingw32/bin/../lib/gcc/nios2-elf/5.3.0/../../../../../H-x86_64-mingw32/nios2-elf/lib/mno-hw-mul\libc.a(lib_a-makebuf.o)
                                        0x6b7 (size before relaxing)
 .debug_str     0x0000000000001263       0x3b c:/intelfpga_lite/18.1/nios2eds/bin/gnu/h-x86_64-mingw32/bin/../lib/gcc/nios2-elf/5.3.0/../../../../../H-x86_64-mingw32/nios2-elf/lib/mno-hw-mul\libc.a(lib_a-readr.o)
                                        0x5ac (size before relaxing)
 .debug_str     0x000000000000129e       0x48 c:/intelfpga_lite/18.1/nios2eds/bin/gnu/h-x86_64-mingw32/bin/../lib/gcc/nios2-elf/5.3.0/../../../../../H-x86_64-mingw32/nios2-elf/lib/mno-hw-mul\libc.a(lib_a-fstatr.o)
                                        0x68b (size before relaxing)
 .debug_str     0x00000000000012e6       0x44 c:/intelfpga_lite/18.1/nios2eds/bin/gnu/h-x86_64-mingw32/bin/../lib/gcc/nios2-elf/5.3.0/../../../../../H-x86_64-mingw32/nios2-elf/lib/mno-hw-mul\libc.a(lib_a-isattyr.o)
                                        0x5a2 (size before relaxing)
 .debug_str     0x000000000000132a      0x187 c:/intelfpga_lite/18.1/nios2eds/bin/gnu/h-x86_64-mingw32/bin/../lib/gcc/nios2-elf/5.3.0/mno-hw-mul\libgcc.a(lib2-divmod.o)
                                        0x1d2 (size before relaxing)
 .debug_str     0x00000000000014b1       0x40 c:/intelfpga_lite/18.1/nios2eds/bin/gnu/h-x86_64-mingw32/bin/../lib/gcc/nios2-elf/5.3.0/mno-hw-mul\libgcc.a(lib2-mul.o)
                                        0x193 (size before relaxing)
 .debug_str     0x00000000000014f1       0xbb H:/Real_Time/TP_bsp/\libucosii_bsp.a(alt_close.o)
                                        0x215 (size before relaxing)
 .debug_str     0x00000000000015ac       0xc4 H:/Real_Time/TP_bsp/\libucosii_bsp.a(alt_dev.o)
                                        0x383 (size before relaxing)
 .debug_str     0x0000000000001670       0x14 H:/Real_Time/TP_bsp/\libucosii_bsp.a(alt_errno.o)
                                        0x11f (size before relaxing)
 .debug_str     0x0000000000001684       0x14 H:/Real_Time/TP_bsp/\libucosii_bsp.a(alt_fstat.o)
                                        0x2f6 (size before relaxing)
 .debug_str     0x0000000000001698       0x15 H:/Real_Time/TP_bsp/\libucosii_bsp.a(alt_isatty.o)
                                        0x2fe (size before relaxing)
 .debug_str     0x00000000000016ad       0xe9 H:/Real_Time/TP_bsp/\libucosii_bsp.a(alt_load.o)
                                        0x1ec (size before relaxing)
 .debug_str     0x0000000000001796       0x14 H:/Real_Time/TP_bsp/\libucosii_bsp.a(alt_lseek.o)
                                        0x21b (size before relaxing)
 .debug_str     0x00000000000017aa       0x5d H:/Real_Time/TP_bsp/\libucosii_bsp.a(alt_main.o)
                                        0x23a (size before relaxing)
 .debug_str     0x0000000000001807       0x13 H:/Real_Time/TP_bsp/\libucosii_bsp.a(alt_read.o)
                                        0x301 (size before relaxing)
 .debug_str     0x000000000000181a       0x28 H:/Real_Time/TP_bsp/\libucosii_bsp.a(alt_release_fd.o)
                                        0x1ff (size before relaxing)
 .debug_str     0x0000000000001842       0x98 H:/Real_Time/TP_bsp/\libucosii_bsp.a(alt_sbrk.o)
                                        0x1ae (size before relaxing)
 .debug_str     0x00000000000018da       0x14 H:/Real_Time/TP_bsp/\libucosii_bsp.a(alt_write.o)
                                        0x302 (size before relaxing)
 .debug_str     0x00000000000018ee      0x246 H:/Real_Time/TP_bsp/\libucosii_bsp.a(alt_env_lock.o)
                                        0x7a2 (size before relaxing)
 .debug_str     0x0000000000001b34       0x36 H:/Real_Time/TP_bsp/\libucosii_bsp.a(alt_malloc_lock.o)
                                        0x804 (size before relaxing)
 .debug_str     0x0000000000001b6a      0x536 H:/Real_Time/TP_bsp/\libucosii_bsp.a(os_core.o)
                                        0x930 (size before relaxing)
 .debug_str     0x00000000000020a0      0x2e5 H:/Real_Time/TP_bsp/\libucosii_bsp.a(os_dbg.o)
                                        0x89f (size before relaxing)
 .debug_str     0x0000000000002385      0x136 H:/Real_Time/TP_bsp/\libucosii_bsp.a(os_flag.o)
                                        0x5cc (size before relaxing)
 .debug_str     0x00000000000024bb       0xcf H:/Real_Time/TP_bsp/\libucosii_bsp.a(os_mem.o)
                                        0x2d5 (size before relaxing)
 .debug_str     0x000000000000258a       0xc0 H:/Real_Time/TP_bsp/\libucosii_bsp.a(os_q.o)
                                        0x54f (size before relaxing)
 .debug_str     0x000000000000264a       0x77 H:/Real_Time/TP_bsp/\libucosii_bsp.a(os_sem.o)
                                        0x4d8 (size before relaxing)
 .debug_str     0x00000000000026c1      0x118 H:/Real_Time/TP_bsp/\libucosii_bsp.a(os_task.o)
                                        0x5db (size before relaxing)
 .debug_str     0x00000000000027d9       0x6d H:/Real_Time/TP_bsp/\libucosii_bsp.a(os_time.o)
                                        0x47b (size before relaxing)
 .debug_str     0x0000000000002846      0x1fe H:/Real_Time/TP_bsp/\libucosii_bsp.a(alt_sys_init.o)
                                        0x4d1 (size before relaxing)
 .debug_str     0x0000000000002a44       0xb2 H:/Real_Time/TP_bsp/\libucosii_bsp.a(altera_avalon_jtag_uart_fd.o)
                                        0x46e (size before relaxing)
 .debug_str     0x0000000000002af6       0xf6 H:/Real_Time/TP_bsp/\libucosii_bsp.a(altera_avalon_jtag_uart_init.o)
                                        0x435 (size before relaxing)
 .debug_str     0x0000000000002bec       0x4a H:/Real_Time/TP_bsp/\libucosii_bsp.a(altera_avalon_jtag_uart_ioctl.o)
                                        0x35d (size before relaxing)
 .debug_str     0x0000000000002c36       0x63 H:/Real_Time/TP_bsp/\libucosii_bsp.a(altera_avalon_jtag_uart_read.o)
                                        0x3d0 (size before relaxing)
 .debug_str     0x0000000000002c99       0x4a H:/Real_Time/TP_bsp/\libucosii_bsp.a(altera_avalon_jtag_uart_write.o)
                                        0x3d1 (size before relaxing)
 .debug_str     0x0000000000002ce3       0x66 H:/Real_Time/TP_bsp/\libucosii_bsp.a(altera_avalon_timer_sc.o)
                                        0x225 (size before relaxing)
 .debug_str     0x0000000000002d49      0x1b3 H:/Real_Time/TP_bsp/\libucosii_bsp.a(altera_modular_adc.o)
                                        0x538 (size before relaxing)
 .debug_str     0x0000000000002efc       0x59 H:/Real_Time/TP_bsp/\libucosii_bsp.a(alt_alarm_start.o)
                                        0x258 (size before relaxing)
 .debug_str     0x0000000000002f55       0x34 H:/Real_Time/TP_bsp/\libucosii_bsp.a(alt_dcache_flush_all.o)
                                        0x12f (size before relaxing)
 .debug_str     0x0000000000002f89       0x34 H:/Real_Time/TP_bsp/\libucosii_bsp.a(alt_dev_llist_insert.o)
                                        0x1a6 (size before relaxing)
 .debug_str     0x0000000000002fbd       0x48 H:/Real_Time/TP_bsp/\libucosii_bsp.a(alt_do_ctors.o)
                                         0xaa (size before relaxing)
 .debug_str     0x0000000000003005       0x4c H:/Real_Time/TP_bsp/\libucosii_bsp.a(alt_do_dtors.o)
                                         0xa9 (size before relaxing)
 .debug_str     0x0000000000003051       0x24 H:/Real_Time/TP_bsp/\libucosii_bsp.a(alt_find_dev.o)
                                        0x1f6 (size before relaxing)
 .debug_str     0x0000000000003075       0x34 H:/Real_Time/TP_bsp/\libucosii_bsp.a(alt_icache_flush_all.o)
                                        0x12f (size before relaxing)
 .debug_str     0x00000000000030a9       0xb7 H:/Real_Time/TP_bsp/\libucosii_bsp.a(alt_iic.o)
                                        0x218 (size before relaxing)
 .debug_str     0x0000000000003160       0x4c H:/Real_Time/TP_bsp/\libucosii_bsp.a(alt_iic_isr_register.o)
                                        0x1c2 (size before relaxing)
 .debug_str     0x00000000000031ac       0x56 H:/Real_Time/TP_bsp/\libucosii_bsp.a(alt_io_redirect.o)
                                        0x320 (size before relaxing)
 .debug_str     0x0000000000003202       0x3a H:/Real_Time/TP_bsp/\libucosii_bsp.a(alt_irq_handler.o)
                                        0x199 (size before relaxing)
 .debug_str     0x000000000000323c       0x17 H:/Real_Time/TP_bsp/\libucosii_bsp.a(alt_irq_vars.o)
                                        0x114 (size before relaxing)
 .debug_str     0x0000000000003253       0x29 H:/Real_Time/TP_bsp/\libucosii_bsp.a(alt_open.o)
                                        0x24d (size before relaxing)
 .debug_str     0x000000000000327c       0x4a H:/Real_Time/TP_bsp/\libucosii_bsp.a(alt_tick.o)
                                        0x239 (size before relaxing)
 .debug_str     0x00000000000032c6       0x3b H:/Real_Time/TP_bsp/\libucosii_bsp.a(altera_nios2_gen2_irq.o)
                                        0x136 (size before relaxing)
 .debug_str     0x0000000000003301       0xd5 H:/Real_Time/TP_bsp/\libucosii_bsp.a(os_cpu_c.o)
                                        0x817 (size before relaxing)
 .debug_str     0x00000000000033d6       0x26 H:/Real_Time/TP_bsp/\libucosii_bsp.a(alt_find_file.o)
                                        0x204 (size before relaxing)
 .debug_str     0x00000000000033fc       0x30 H:/Real_Time/TP_bsp/\libucosii_bsp.a(alt_get_fd.o)
                                        0x2a2 (size before relaxing)
 .debug_str     0x000000000000342c      0x48b H:/Real_Time/TP_bsp/\libucosii_bsp.a(alt_instruction_exception_entry.o)
                                        0x57a (size before relaxing)
 .debug_str     0x00000000000038b7       0x81 c:/intelfpga_lite/18.1/nios2eds/bin/gnu/h-x86_64-mingw32/bin/../lib/gcc/nios2-elf/5.3.0/../../../../../H-x86_64-mingw32/nios2-elf/lib/mno-hw-mul\libc.a(lib_a-atexit.o)
                                        0x221 (size before relaxing)
 .debug_str     0x0000000000003938       0x4c c:/intelfpga_lite/18.1/nios2eds/bin/gnu/h-x86_64-mingw32/bin/../lib/gcc/nios2-elf/5.3.0/../../../../../H-x86_64-mingw32/nios2-elf/lib/mno-hw-mul\libc.a(lib_a-exit.o)
                                        0x5be (size before relaxing)
 .debug_str     0x0000000000003984       0x44 c:/intelfpga_lite/18.1/nios2eds/bin/gnu/h-x86_64-mingw32/bin/../lib/gcc/nios2-elf/5.3.0/../../../../../H-x86_64-mingw32/nios2-elf/lib/mno-hw-mul\libc.a(lib_a-memcmp.o)
                                        0x1e4 (size before relaxing)
 .debug_str     0x00000000000039c8       0x3f c:/intelfpga_lite/18.1/nios2eds/bin/gnu/h-x86_64-mingw32/bin/../lib/gcc/nios2-elf/5.3.0/../../../../../H-x86_64-mingw32/nios2-elf/lib/mno-hw-mul\libc.a(lib_a-__atexit.o)
                                        0x5f6 (size before relaxing)
 .debug_str     0x0000000000003a07       0x60 c:/intelfpga_lite/18.1/nios2eds/bin/gnu/h-x86_64-mingw32/bin/../lib/gcc/nios2-elf/5.3.0/../../../../../H-x86_64-mingw32/nios2-elf/lib/mno-hw-mul\libc.a(lib_a-__call_atexit.o)
                                        0x5e2 (size before relaxing)
 .debug_str     0x0000000000003a67       0x2a H:/Real_Time/TP_bsp/\libucosii_bsp.a(alt_exit.o)
                                        0x16d (size before relaxing)

.debug_loc      0x0000000000000000     0x4ada
 *(.debug_loc)
 .debug_loc     0x0000000000000000      0x117 c:/intelfpga_lite/18.1/nios2eds/bin/gnu/h-x86_64-mingw32/bin/../lib/gcc/nios2-elf/5.3.0/../../../../../H-x86_64-mingw32/nios2-elf/lib/mno-hw-mul\libc.a(lib_a-puts.o)
 .debug_loc     0x0000000000000117       0x47 c:/intelfpga_lite/18.1/nios2eds/bin/gnu/h-x86_64-mingw32/bin/../lib/gcc/nios2-elf/5.3.0/../../../../../H-x86_64-mingw32/nios2-elf/lib/mno-hw-mul\libc.a(lib_a-strlen.o)
 .debug_loc     0x000000000000015e      0x2f9 c:/intelfpga_lite/18.1/nios2eds/bin/gnu/h-x86_64-mingw32/bin/../lib/gcc/nios2-elf/5.3.0/../../../../../H-x86_64-mingw32/nios2-elf/lib/mno-hw-mul\libc.a(lib_a-findfp.o)
 .debug_loc     0x0000000000000457      0x5c7 c:/intelfpga_lite/18.1/nios2eds/bin/gnu/h-x86_64-mingw32/bin/../lib/gcc/nios2-elf/5.3.0/../../../../../H-x86_64-mingw32/nios2-elf/lib/mno-hw-mul\libc.a(lib_a-fvwrite.o)
 .debug_loc     0x0000000000000a1e      0x25b c:/intelfpga_lite/18.1/nios2eds/bin/gnu/h-x86_64-mingw32/bin/../lib/gcc/nios2-elf/5.3.0/../../../../../H-x86_64-mingw32/nios2-elf/lib/mno-hw-mul\libc.a(lib_a-fwalk.o)
 .debug_loc     0x0000000000000c79      0xb1b c:/intelfpga_lite/18.1/nios2eds/bin/gnu/h-x86_64-mingw32/bin/../lib/gcc/nios2-elf/5.3.0/../../../../../H-x86_64-mingw32/nios2-elf/lib/mno-hw-mul\libc.a(lib_a-mallocr.o)
 .debug_loc     0x0000000000001794      0x1a1 c:/intelfpga_lite/18.1/nios2eds/bin/gnu/h-x86_64-mingw32/bin/../lib/gcc/nios2-elf/5.3.0/../../../../../H-x86_64-mingw32/nios2-elf/lib/mno-hw-mul\libc.a(lib_a-memchr.o)
 .debug_loc     0x0000000000001935      0x266 c:/intelfpga_lite/18.1/nios2eds/bin/gnu/h-x86_64-mingw32/bin/../lib/gcc/nios2-elf/5.3.0/../../../../../H-x86_64-mingw32/nios2-elf/lib/mno-hw-mul\libc.a(lib_a-memcpy.o)
 .debug_loc     0x0000000000001b9b      0x308 c:/intelfpga_lite/18.1/nios2eds/bin/gnu/h-x86_64-mingw32/bin/../lib/gcc/nios2-elf/5.3.0/../../../../../H-x86_64-mingw32/nios2-elf/lib/mno-hw-mul\libc.a(lib_a-memmove.o)
 .debug_loc     0x0000000000001ea3      0x1a6 c:/intelfpga_lite/18.1/nios2eds/bin/gnu/h-x86_64-mingw32/bin/../lib/gcc/nios2-elf/5.3.0/../../../../../H-x86_64-mingw32/nios2-elf/lib/mno-hw-mul\libc.a(lib_a-memset.o)
 .debug_loc     0x0000000000002049      0xde4 c:/intelfpga_lite/18.1/nios2eds/bin/gnu/h-x86_64-mingw32/bin/../lib/gcc/nios2-elf/5.3.0/../../../../../H-x86_64-mingw32/nios2-elf/lib/mno-hw-mul\libc.a(lib_a-reallocr.o)
 .debug_loc     0x0000000000002e2d       0x58 c:/intelfpga_lite/18.1/nios2eds/bin/gnu/h-x86_64-mingw32/bin/../lib/gcc/nios2-elf/5.3.0/../../../../../H-x86_64-mingw32/nios2-elf/lib/mno-hw-mul\libc.a(lib_a-sbrkr.o)
 .debug_loc     0x0000000000002e85      0x33a c:/intelfpga_lite/18.1/nios2eds/bin/gnu/h-x86_64-mingw32/bin/../lib/gcc/nios2-elf/5.3.0/../../../../../H-x86_64-mingw32/nios2-elf/lib/mno-hw-mul\libc.a(lib_a-stdio.o)
 .debug_loc     0x00000000000031bf       0xb0 c:/intelfpga_lite/18.1/nios2eds/bin/gnu/h-x86_64-mingw32/bin/../lib/gcc/nios2-elf/5.3.0/../../../../../H-x86_64-mingw32/nios2-elf/lib/mno-hw-mul\libc.a(lib_a-writer.o)
 .debug_loc     0x000000000000326f       0xa2 c:/intelfpga_lite/18.1/nios2eds/bin/gnu/h-x86_64-mingw32/bin/../lib/gcc/nios2-elf/5.3.0/../../../../../H-x86_64-mingw32/nios2-elf/lib/mno-hw-mul\libc.a(lib_a-wsetup.o)
 .debug_loc     0x0000000000003311       0x58 c:/intelfpga_lite/18.1/nios2eds/bin/gnu/h-x86_64-mingw32/bin/../lib/gcc/nios2-elf/5.3.0/../../../../../H-x86_64-mingw32/nios2-elf/lib/mno-hw-mul\libc.a(closer.o)
 .debug_loc     0x0000000000003369      0x199 c:/intelfpga_lite/18.1/nios2eds/bin/gnu/h-x86_64-mingw32/bin/../lib/gcc/nios2-elf/5.3.0/../../../../../H-x86_64-mingw32/nios2-elf/lib/mno-hw-mul\libc.a(lib_a-fclose.o)
 .debug_loc     0x0000000000003502      0x36f c:/intelfpga_lite/18.1/nios2eds/bin/gnu/h-x86_64-mingw32/bin/../lib/gcc/nios2-elf/5.3.0/../../../../../H-x86_64-mingw32/nios2-elf/lib/mno-hw-mul\libc.a(lib_a-fflush.o)
 .debug_loc     0x0000000000003871      0x4e7 c:/intelfpga_lite/18.1/nios2eds/bin/gnu/h-x86_64-mingw32/bin/../lib/gcc/nios2-elf/5.3.0/../../../../../H-x86_64-mingw32/nios2-elf/lib/mno-hw-mul\libc.a(lib_a-freer.o)
 .debug_loc     0x0000000000003d58       0xb0 c:/intelfpga_lite/18.1/nios2eds/bin/gnu/h-x86_64-mingw32/bin/../lib/gcc/nios2-elf/5.3.0/../../../../../H-x86_64-mingw32/nios2-elf/lib/mno-hw-mul\libc.a(lib_a-lseekr.o)
 .debug_loc     0x0000000000003e08      0x122 c:/intelfpga_lite/18.1/nios2eds/bin/gnu/h-x86_64-mingw32/bin/../lib/gcc/nios2-elf/5.3.0/../../../../../H-x86_64-mingw32/nios2-elf/lib/mno-hw-mul\libc.a(lib_a-makebuf.o)
 .debug_loc     0x0000000000003f2a       0xb0 c:/intelfpga_lite/18.1/nios2eds/bin/gnu/h-x86_64-mingw32/bin/../lib/gcc/nios2-elf/5.3.0/../../../../../H-x86_64-mingw32/nios2-elf/lib/mno-hw-mul\libc.a(lib_a-readr.o)
 .debug_loc     0x0000000000003fda       0x84 c:/intelfpga_lite/18.1/nios2eds/bin/gnu/h-x86_64-mingw32/bin/../lib/gcc/nios2-elf/5.3.0/../../../../../H-x86_64-mingw32/nios2-elf/lib/mno-hw-mul\libc.a(lib_a-fstatr.o)
 .debug_loc     0x000000000000405e       0x58 c:/intelfpga_lite/18.1/nios2eds/bin/gnu/h-x86_64-mingw32/bin/../lib/gcc/nios2-elf/5.3.0/../../../../../H-x86_64-mingw32/nios2-elf/lib/mno-hw-mul\libc.a(lib_a-isattyr.o)
 .debug_loc     0x00000000000040b6      0x4ce c:/intelfpga_lite/18.1/nios2eds/bin/gnu/h-x86_64-mingw32/bin/../lib/gcc/nios2-elf/5.3.0/mno-hw-mul\libgcc.a(lib2-divmod.o)
 .debug_loc     0x0000000000004584       0x93 c:/intelfpga_lite/18.1/nios2eds/bin/gnu/h-x86_64-mingw32/bin/../lib/gcc/nios2-elf/5.3.0/mno-hw-mul\libgcc.a(lib2-mul.o)
 .debug_loc     0x0000000000004617       0x2c c:/intelfpga_lite/18.1/nios2eds/bin/gnu/h-x86_64-mingw32/bin/../lib/gcc/nios2-elf/5.3.0/../../../../../H-x86_64-mingw32/nios2-elf/lib/mno-hw-mul\libc.a(lib_a-atexit.o)
 .debug_loc     0x0000000000004643       0x1e c:/intelfpga_lite/18.1/nios2eds/bin/gnu/h-x86_64-mingw32/bin/../lib/gcc/nios2-elf/5.3.0/../../../../../H-x86_64-mingw32/nios2-elf/lib/mno-hw-mul\libc.a(lib_a-exit.o)
 .debug_loc     0x0000000000004661      0x126 c:/intelfpga_lite/18.1/nios2eds/bin/gnu/h-x86_64-mingw32/bin/../lib/gcc/nios2-elf/5.3.0/../../../../../H-x86_64-mingw32/nios2-elf/lib/mno-hw-mul\libc.a(lib_a-memcmp.o)
 .debug_loc     0x0000000000004787      0x185 c:/intelfpga_lite/18.1/nios2eds/bin/gnu/h-x86_64-mingw32/bin/../lib/gcc/nios2-elf/5.3.0/../../../../../H-x86_64-mingw32/nios2-elf/lib/mno-hw-mul\libc.a(lib_a-__atexit.o)
 .debug_loc     0x000000000000490c      0x1ce c:/intelfpga_lite/18.1/nios2eds/bin/gnu/h-x86_64-mingw32/bin/../lib/gcc/nios2-elf/5.3.0/../../../../../H-x86_64-mingw32/nios2-elf/lib/mno-hw-mul\libc.a(lib_a-__call_atexit.o)

.debug_macinfo
 *(.debug_macinfo)

.debug_weaknames
 *(.debug_weaknames)

.debug_funcnames
 *(.debug_funcnames)

.debug_typenames
 *(.debug_typenames)

.debug_varnames
 *(.debug_varnames)

.debug_alt_sim_info
                0x0000000000000000       0x10
 *(.debug_alt_sim_info)
 .debug_alt_sim_info
                0x0000000000000000       0x10 H:/Real_Time/TP_bsp//obj/HAL/src/crt0.o
                0x0000000008000000                __alt_data_end = 0x8000000
                0x0000000008000000                PROVIDE (__alt_stack_pointer, __alt_data_end)
                [!provide]                        PROVIDE (__alt_stack_limit, __alt_stack_base)
                0x0000000004018f60                PROVIDE (__alt_heap_start, end)
                0x0000000008000000                PROVIDE (__alt_heap_limit, 0x8000000)
OUTPUT(TP.elf elf32-littlenios2)

.debug_ranges   0x0000000000000000      0x680
 .debug_ranges  0x0000000000000000       0x20 H:/Real_Time/TP_bsp//obj/HAL/src/crt0.o
 .debug_ranges  0x0000000000000020       0x30 c:/intelfpga_lite/18.1/nios2eds/bin/gnu/h-x86_64-mingw32/bin/../lib/gcc/nios2-elf/5.3.0/../../../../../H-x86_64-mingw32/nios2-elf/lib/mno-hw-mul\libc.a(lib_a-puts.o)
 .debug_ranges  0x0000000000000050       0x10 c:/intelfpga_lite/18.1/nios2eds/bin/gnu/h-x86_64-mingw32/bin/../lib/gcc/nios2-elf/5.3.0/../../../../../H-x86_64-mingw32/nios2-elf/lib/mno-hw-mul\libc.a(lib_a-strlen.o)
 .debug_ranges  0x0000000000000060       0xc8 c:/intelfpga_lite/18.1/nios2eds/bin/gnu/h-x86_64-mingw32/bin/../lib/gcc/nios2-elf/5.3.0/../../../../../H-x86_64-mingw32/nios2-elf/lib/mno-hw-mul\libc.a(lib_a-findfp.o)
 .debug_ranges  0x0000000000000128       0x30 c:/intelfpga_lite/18.1/nios2eds/bin/gnu/h-x86_64-mingw32/bin/../lib/gcc/nios2-elf/5.3.0/../../../../../H-x86_64-mingw32/nios2-elf/lib/mno-hw-mul\libc.a(lib_a-fvwrite.o)
 .debug_ranges  0x0000000000000158       0x18 c:/intelfpga_lite/18.1/nios2eds/bin/gnu/h-x86_64-mingw32/bin/../lib/gcc/nios2-elf/5.3.0/../../../../../H-x86_64-mingw32/nios2-elf/lib/mno-hw-mul\libc.a(lib_a-fwalk.o)
 .debug_ranges  0x0000000000000170       0x48 c:/intelfpga_lite/18.1/nios2eds/bin/gnu/h-x86_64-mingw32/bin/../lib/gcc/nios2-elf/5.3.0/../../../../../H-x86_64-mingw32/nios2-elf/lib/mno-hw-mul\libc.a(lib_a-mallocr.o)
 .debug_ranges  0x00000000000001b8       0x10 c:/intelfpga_lite/18.1/nios2eds/bin/gnu/h-x86_64-mingw32/bin/../lib/gcc/nios2-elf/5.3.0/../../../../../H-x86_64-mingw32/nios2-elf/lib/mno-hw-mul\libc.a(lib_a-memchr.o)
 .debug_ranges  0x00000000000001c8       0x10 c:/intelfpga_lite/18.1/nios2eds/bin/gnu/h-x86_64-mingw32/bin/../lib/gcc/nios2-elf/5.3.0/../../../../../H-x86_64-mingw32/nios2-elf/lib/mno-hw-mul\libc.a(lib_a-memcpy.o)
 .debug_ranges  0x00000000000001d8       0x10 c:/intelfpga_lite/18.1/nios2eds/bin/gnu/h-x86_64-mingw32/bin/../lib/gcc/nios2-elf/5.3.0/../../../../../H-x86_64-mingw32/nios2-elf/lib/mno-hw-mul\libc.a(lib_a-memmove.o)
 .debug_ranges  0x00000000000001e8       0x10 c:/intelfpga_lite/18.1/nios2eds/bin/gnu/h-x86_64-mingw32/bin/../lib/gcc/nios2-elf/5.3.0/../../../../../H-x86_64-mingw32/nios2-elf/lib/mno-hw-mul\libc.a(lib_a-memset.o)
 .debug_ranges  0x00000000000001f8      0x148 c:/intelfpga_lite/18.1/nios2eds/bin/gnu/h-x86_64-mingw32/bin/../lib/gcc/nios2-elf/5.3.0/../../../../../H-x86_64-mingw32/nios2-elf/lib/mno-hw-mul\libc.a(lib_a-reallocr.o)
 .debug_ranges  0x0000000000000340       0x10 c:/intelfpga_lite/18.1/nios2eds/bin/gnu/h-x86_64-mingw32/bin/../lib/gcc/nios2-elf/5.3.0/../../../../../H-x86_64-mingw32/nios2-elf/lib/mno-hw-mul\libc.a(lib_a-sbrkr.o)
 .debug_ranges  0x0000000000000350       0x30 c:/intelfpga_lite/18.1/nios2eds/bin/gnu/h-x86_64-mingw32/bin/../lib/gcc/nios2-elf/5.3.0/../../../../../H-x86_64-mingw32/nios2-elf/lib/mno-hw-mul\libc.a(lib_a-stdio.o)
 .debug_ranges  0x0000000000000380       0x10 c:/intelfpga_lite/18.1/nios2eds/bin/gnu/h-x86_64-mingw32/bin/../lib/gcc/nios2-elf/5.3.0/../../../../../H-x86_64-mingw32/nios2-elf/lib/mno-hw-mul\libc.a(lib_a-writer.o)
 .debug_ranges  0x0000000000000390       0x40 c:/intelfpga_lite/18.1/nios2eds/bin/gnu/h-x86_64-mingw32/bin/../lib/gcc/nios2-elf/5.3.0/../../../../../H-x86_64-mingw32/nios2-elf/lib/mno-hw-mul\libc.a(lib_a-wsetup.o)
 .debug_ranges  0x00000000000003d0       0x10 c:/intelfpga_lite/18.1/nios2eds/bin/gnu/h-x86_64-mingw32/bin/../lib/gcc/nios2-elf/5.3.0/../../../../../H-x86_64-mingw32/nios2-elf/lib/mno-hw-mul\libc.a(closer.o)
 .debug_ranges  0x00000000000003e0       0x48 c:/intelfpga_lite/18.1/nios2eds/bin/gnu/h-x86_64-mingw32/bin/../lib/gcc/nios2-elf/5.3.0/../../../../../H-x86_64-mingw32/nios2-elf/lib/mno-hw-mul\libc.a(lib_a-fclose.o)
 .debug_ranges  0x0000000000000428       0x58 c:/intelfpga_lite/18.1/nios2eds/bin/gnu/h-x86_64-mingw32/bin/../lib/gcc/nios2-elf/5.3.0/../../../../../H-x86_64-mingw32/nios2-elf/lib/mno-hw-mul\libc.a(lib_a-fflush.o)
 .debug_ranges  0x0000000000000480       0x18 c:/intelfpga_lite/18.1/nios2eds/bin/gnu/h-x86_64-mingw32/bin/../lib/gcc/nios2-elf/5.3.0/../../../../../H-x86_64-mingw32/nios2-elf/lib/mno-hw-mul\libc.a(lib_a-freer.o)
 .debug_ranges  0x0000000000000498       0x10 c:/intelfpga_lite/18.1/nios2eds/bin/gnu/h-x86_64-mingw32/bin/../lib/gcc/nios2-elf/5.3.0/../../../../../H-x86_64-mingw32/nios2-elf/lib/mno-hw-mul\libc.a(lib_a-lseekr.o)
 .debug_ranges  0x00000000000004a8       0x10 c:/intelfpga_lite/18.1/nios2eds/bin/gnu/h-x86_64-mingw32/bin/../lib/gcc/nios2-elf/5.3.0/../../../../../H-x86_64-mingw32/nios2-elf/lib/mno-hw-mul\libc.a(lib_a-makebuf.o)
 .debug_ranges  0x00000000000004b8       0x10 c:/intelfpga_lite/18.1/nios2eds/bin/gnu/h-x86_64-mingw32/bin/../lib/gcc/nios2-elf/5.3.0/../../../../../H-x86_64-mingw32/nios2-elf/lib/mno-hw-mul\libc.a(lib_a-readr.o)
 .debug_ranges  0x00000000000004c8       0x10 c:/intelfpga_lite/18.1/nios2eds/bin/gnu/h-x86_64-mingw32/bin/../lib/gcc/nios2-elf/5.3.0/../../../../../H-x86_64-mingw32/nios2-elf/lib/mno-hw-mul\libc.a(lib_a-fstatr.o)
 .debug_ranges  0x00000000000004d8       0x10 c:/intelfpga_lite/18.1/nios2eds/bin/gnu/h-x86_64-mingw32/bin/../lib/gcc/nios2-elf/5.3.0/../../../../../H-x86_64-mingw32/nios2-elf/lib/mno-hw-mul\libc.a(lib_a-isattyr.o)
 .debug_ranges  0x00000000000004e8       0x60 c:/intelfpga_lite/18.1/nios2eds/bin/gnu/h-x86_64-mingw32/bin/../lib/gcc/nios2-elf/5.3.0/mno-hw-mul\libgcc.a(lib2-divmod.o)
 .debug_ranges  0x0000000000000548       0x30 H:/Real_Time/TP_bsp/\libucosii_bsp.a(altera_avalon_jtag_uart_init.o)
 .debug_ranges  0x0000000000000578       0x18 H:/Real_Time/TP_bsp/\libucosii_bsp.a(altera_avalon_jtag_uart_read.o)
 .debug_ranges  0x0000000000000590       0x28 H:/Real_Time/TP_bsp/\libucosii_bsp.a(alt_irq_entry.o)
 .debug_ranges  0x00000000000005b8       0x10 H:/Real_Time/TP_bsp/\libucosii_bsp.a(alt_irq_handler.o)
 .debug_ranges  0x00000000000005c8       0x30 H:/Real_Time/TP_bsp/\libucosii_bsp.a(alt_exception_entry.o)
 .debug_ranges  0x00000000000005f8       0x18 H:/Real_Time/TP_bsp/\libucosii_bsp.a(alt_instruction_exception_entry.o)
 .debug_ranges  0x0000000000000610       0x10 c:/intelfpga_lite/18.1/nios2eds/bin/gnu/h-x86_64-mingw32/bin/../lib/gcc/nios2-elf/5.3.0/../../../../../H-x86_64-mingw32/nios2-elf/lib/mno-hw-mul\libc.a(lib_a-atexit.o)
 .debug_ranges  0x0000000000000620       0x10 c:/intelfpga_lite/18.1/nios2eds/bin/gnu/h-x86_64-mingw32/bin/../lib/gcc/nios2-elf/5.3.0/../../../../../H-x86_64-mingw32/nios2-elf/lib/mno-hw-mul\libc.a(lib_a-exit.o)
 .debug_ranges  0x0000000000000630       0x10 c:/intelfpga_lite/18.1/nios2eds/bin/gnu/h-x86_64-mingw32/bin/../lib/gcc/nios2-elf/5.3.0/../../../../../H-x86_64-mingw32/nios2-elf/lib/mno-hw-mul\libc.a(lib_a-memcmp.o)
 .debug_ranges  0x0000000000000640       0x10 c:/intelfpga_lite/18.1/nios2eds/bin/gnu/h-x86_64-mingw32/bin/../lib/gcc/nios2-elf/5.3.0/../../../../../H-x86_64-mingw32/nios2-elf/lib/mno-hw-mul\libc.a(lib_a-__atexit.o)
 .debug_ranges  0x0000000000000650       0x30 c:/intelfpga_lite/18.1/nios2eds/bin/gnu/h-x86_64-mingw32/bin/../lib/gcc/nios2-elf/5.3.0/../../../../../H-x86_64-mingw32/nios2-elf/lib/mno-hw-mul\libc.a(lib_a-__call_atexit.o)
